(lp0
ccopy_reg
_reconstructor
p1
(coSoP.oSoP_class
oSoP
p2
c__builtin__
object
p3
Ntp4
Rp5
(dp6
S'_Top'
p7
g1
(coSoP.Adder
Adder
p8
g3
Ntp9
Rp10
(dp11
S'_label'
p12
NsS'_rshift'
p13
(lp14
I0
aI0
asS'_result'
p15
NsS'_total_noise'
p16
(lp17
I0
aI0
asS'_top'
p18
I01
sS'_var_op'
p19
(lp20
g1
(coSoP.Variable
Variable
p21
g3
Ntp22
Rp23
(dp24
S'_FPF'
p25
g1
(coSoP.FPF
FPF
p26
g3
Ntp27
Rp28
(dp29
S'_signed'
p30
I01
sS'_wl'
p31
I20
sS'_lsb'
p32
I-8
sS'_msb'
p33
I11
sbsS'_integer_sup'
p34
I358352
sS'_integer_inf'
p35
I-277417
sS'_name'
p36
S'Var5'
p37
sS'_value_inf'
p38
cnumpy.core.multiarray
scalar
p39
(cnumpy
dtype
p40
(S'f8'
p41
I0
I1
tp42
Rp43
(I3
S'<'
p44
NNNI-1
I-1
I0
tp45
bS'l\xac\xb0\x99\xa5\xee\x90\xc0'
p46
tp47
Rp48
sS'_value_sup'
p49
g39
(g43
S'wT(\t?\xdf\x95@'
p50
tp51
Rp52
sbag1
(g21
g3
Ntp53
Rp54
(dp55
g25
g28
sg34
I57040
sg35
I-38989
sg36
S'Var6'
p56
sg38
g39
(g43
S'\xa6V\xeb1\xaf\tc\xc0'
p57
tp58
Rp59
sg49
g39
(g43
S'\x82\x83f\x0b\x05\xdak@'
p60
tp61
Rp62
sbasS'_var_result'
p63
g1
(g21
g3
Ntp64
Rp65
(dp66
g25
g28
sg34
I415392
sg35
I-316406
sg36
S'Var7'
p67
sg38
g39
(g43
S'A\x17\xee\x7f\xdbO\x93\xc0'
p68
tp69
Rp70
sg49
g39
(g43
S'\xe7$\x95\xaa\x7fZ\x99@'
p71
tp72
Rp73
sbsg36
S'Add_0'
p74
sS'_int_err'
p75
(lp76
I0
aI0
asS'_total_error'
p77
g1
(coSoP.Error
Error
p78
g3
Ntp79
Rp80
(dp81
S'_variance'
p82
F6.357828776032415e-06
sS'_sup'
p83
I0
sS'_mode'
p84
S'truncature'
p85
sS'_inf'
p86
cgmpy2
from_binary
p87
(S'\x04c\x00\x005\x00\x00\x00\x06\x00\x00\x00\x00\x00\x00\x00\x00\xf0\xff\xbf'
p88
tp89
Rp90
sS'_mean'
p91
F0.005859367549419403
sbsS'_local_error'
p92
g1
(g78
g3
Ntp93
Rp94
(dp95
g82
F3.814697265625e-06
sg83
I0
sg84
g85
sg86
g87
(S'\x04c\x00\x005\x00\x00\x00\x07\x00\x00\x00\x00\x00\x00\x00\x00\x00\x00\x80'
p96
tp97
Rp98
sg91
F0.001953125
sbsS'_operands'
p99
(lp100
g1
(coSoP.Multiplier
Multiplier
p101
g3
Ntp102
Rp103
(dp104
g92
g1
(g78
g3
Ntp105
Rp106
(dp107
g82
F1.2715657552037074e-06
sg83
I0
sg84
g85
sg86
g87
(S'\x04c\x00\x005\x00\x00\x00\x08\x00\x00\x00\x00\x00\x00\x00\x00\xe0\xff\xff'
p108
tp109
Rp110
sg91
F0.0019531212747097015
sbsg12
I1
sg13
I19
sg15
Nsg77
g1
(g78
g3
Ntp111
Rp112
(dp113
g82
I0
sg83
I0
sg84
g85
sg86
I0
sg91
I0
sbsS'_RndOff'
p114
S'RAM'
p115
sS'_index'
p116
I0
sS'_cst_bs'
p117
g1
(coSoP.Constant
Constant
p118
g3
Ntp119
Rp120
(dp121
S'_value'
p122
g39
(g43
S'\xc4\xdb\xccS}<\xf5?'
p123
tp124
Rp125
sg25
g1
(g26
g3
Ntp126
Rp127
(dp128
g30
I01
sg31
I22
sg32
I-20
sg33
I1
sbsS'_integer'
p129
I1391741
sbsS'_var_name'
p130
S'x1[k]'
p131
sS'_lsb_final'
p132
I-8
sS'_cst'
p133
g1
(g118
g3
Ntp134
Rp135
(dp136
g122
g125
sg25
g1
(g26
g3
Ntp137
Rp138
(dp139
g30
I01
sg31
I22
sg32
I-20
sg33
I1
sbsg129
I1391741
sbsg63
g1
(g21
g3
Ntp140
Rp141
(dp142
g25
g1
(g26
g3
Ntp143
Rp144
(dp145
g30
I01
sg31
I20
sg32
I-8
sg33
I11
sbsg34
I358352
sg35
I-277417
sg36
S'Var1'
p146
sg38
g48
sg49
g52
sbsg36
S'Mult_x1[k]'
p147
sg31
I20
sS'_var'
p148
g1
(g21
g3
Ntp149
Rp150
(dp151
g25
g1
(g26
g3
Ntp152
Rp153
(dp154
g30
I01
sg31
I19
sg32
I-7
sg33
I11
sbsg34
I134996
sg35
I-104507
sg36
g131
sg38
g39
(g43
S'\xdb\xd0g\xe2\xae\x83\x89\xc0'
p155
tp156
Rp157
sg49
g39
(g43
S'\x91\xb8\xba\x15\xa0z\x90@'
p158
tp159
Rp160
sbsS'_rshift_cst'
p161
I0
sbag1
(g101
g3
Ntp162
Rp163
(dp164
g92
g1
(g78
g3
Ntp165
Rp166
(dp167
g82
F1.2715657552037074e-06
sg83
I0
sg84
g85
sg86
g87
(S'\x04c\x00\x005\x00\x00\x00\x08\x00\x00\x00\x00\x00\x00\x00\x00\xe0\xff\xff'
p168
tp169
Rp170
sg91
F0.0019531212747097015
sbsg12
I1
sg13
I19
sg15
Nsg77
g1
(g78
g3
Ntp171
Rp172
(dp173
g82
I0
sg83
I0
sg84
g85
sg86
I0
sg91
I0
sbsg114
g115
sg116
I1
sg117
g1
(g118
g3
Ntp174
Rp175
(dp176
g122
g39
(g43
S'\xa8\xbe\xbf\xe9\x9f\x15\xee\xbf'
p177
tp178
Rp179
sg25
g1
(g26
g3
Ntp180
Rp181
(dp182
g30
I01
sg31
I18
sg32
I-17
sg33
I0
sbsg129
I-123226
sbsg130
S'u1[k]'
p183
sg132
I-8
sg133
g1
(g118
g3
Ntp184
Rp185
(dp186
g122
g179
sg25
g1
(g26
g3
Ntp187
Rp188
(dp189
g30
I01
sg31
I18
sg32
I-17
sg33
I0
sbsg129
I-123226
sbsg63
g1
(g21
g3
Ntp190
Rp191
(dp192
g25
g1
(g26
g3
Ntp193
Rp194
(dp195
g30
I01
sg31
I17
sg32
I-8
sg33
I8
sbsg34
I57040
sg35
I-38989
sg36
S'Var2'
p196
sg38
g59
sg49
g62
sbsg36
S'Mult_u1[k]'
p197
sg31
I20
sg148
g1
(g21
g3
Ntp198
Rp199
(dp200
g25
g1
(g26
g3
Ntp201
Rp202
(dp203
g30
I01
sg31
I19
sg32
I-10
sg33
I8
sbsg34
I165888
sg35
I-242688
sg36
g183
sg38
g39
(g43
S'\x00\x00\x00\x00\x00\xa0m\xc0'
p204
tp205
Rp206
sg49
g39
(g43
S'\x00\x00\x00\x00\x00@d@'
p207
tp208
Rp209
sbsg161
I0
sbasS'_left'
p210
g103
sS'_local_noise'
p211
(lp212
I0
aI0
asbsS'_var_final'
p213
g1
(g21
g3
Ntp214
Rp215
(dp216
g25
g1
(g26
g3
Ntp217
Rp218
(dp219
g30
I01
sg31
I19
sg32
I-7
sg33
I11
sbsg34
I207696
sg35
I-158203
sg36
S'Var0'
p220
sg38
g70
sg49
g73
sbsS'_rshift_final'
p221
I1
sbag1
(g2
g3
Ntp222
Rp223
(dp224
g7
g1
(g101
g3
Ntp225
Rp226
(dp227
g92
g1
(g78
g3
Ntp228
Rp229
(dp230
g82
F1.2715657552037074e-06
sg83
I0
sg84
g85
sg86
g87
(S'\x04c\x00\x005\x00\x00\x00\x08\x00\x00\x00\x00\x00\x00\x00\x00\xe0\xff\xff'
p231
tp232
Rp233
sg91
F0.0019531212747097015
sbsg12
I1
sg13
I19
sg15
Nsg77
g1
(g78
g3
Ntp234
Rp235
(dp236
g82
I0
sg83
I0
sg84
g85
sg86
I0
sg91
I0
sbsg114
g115
sg116
I0
sg117
g1
(g118
g3
Ntp237
Rp238
(dp239
g122
g39
(g43
S'u\xcb\xd3r\x00\x9a\xe7?'
p240
tp241
Rp242
sg25
g1
(g26
g3
Ntp243
Rp244
(dp245
g30
I01
sg31
I21
sg32
I-20
sg33
I0
sbsg129
I773376
sbsg130
S'x2[k]'
p246
sg132
I-8
sg133
g1
(g118
g3
Ntp247
Rp248
(dp249
g122
g242
sg25
g1
(g26
g3
Ntp250
Rp251
(dp252
g30
I01
sg31
I21
sg32
I-20
sg33
I0
sbsg129
I773376
sbsg63
g1
(g21
g3
Ntp253
Rp254
(dp255
g25
g1
(g26
g3
Ntp256
Rp257
(dp258
g30
I01
sg31
I19
sg32
I-8
sg33
I10
sbsg34
I231105
sg35
I-182430
sg36
S'Var9'
p259
sg38
g39
(g43
S'\xe7(\xdd\xb9\xeeD\x86\xc0'
p260
tp261
Rp262
sg49
g39
(g43
S'\x12\x862s\t6\x8c@'
p263
tp264
Rp265
sbsg36
S'Mult_x2[k]'
p266
sg31
I19
sg148
g1
(g21
g3
Ntp267
Rp268
(dp269
g25
g1
(g26
g3
Ntp270
Rp271
(dp272
g30
I01
sg31
I19
sg32
I-7
sg33
I11
sbsg34
I156671
sg35
I-123673
sg36
g246
sg38
g39
(g43
S'\xe2\xdfRb\x901\x8e\xc0'
p273
tp274
Rp275
sg49
g39
(g43
S'#y\x05|\xf8\x1f\x93@'
p276
tp277
Rp278
sbsg161
I0
sbsg213
Nsg221
I0
sbag1
(g2
g3
Ntp279
Rp280
(dp281
g7
g1
(g101
g3
Ntp282
Rp283
(dp284
g92
g1
(g78
g3
Ntp285
Rp286
(dp287
g82
F5.08626302081483e-06
sg83
I0
sg84
g85
sg86
g87
(S'\x04c\x00\x005\x00\x00\x00\x07\x00\x00\x00\x00\x00\x00\x00\x00\xe0\xff\xff'
p288
tp289
Rp290
sg91
F0.003906242549419403
sbsg12
I1
sg13
I19
sg15
Nsg77
g1
(g78
g3
Ntp291
Rp292
(dp293
g82
I0
sg83
I0
sg84
g85
sg86
I0
sg91
I0
sbsg114
g115
sg116
I0
sg117
g1
(g118
g3
Ntp294
Rp295
(dp296
g122
g39
(g43
S'y_\t\x01\xe5\xf9\xe6?'
p297
tp298
Rp299
sg25
g1
(g26
g3
Ntp300
Rp301
(dp302
g30
I01
sg31
I20
sg32
I-19
sg33
I0
sbsg129
I376441
sbsg130
S'x3[k]'
p303
sg132
I-7
sg133
g1
(g118
g3
Ntp304
Rp305
(dp306
g122
g299
sg25
g1
(g26
g3
Ntp307
Rp308
(dp309
g30
I01
sg31
I20
sg32
I-19
sg33
I0
sbsg129
I376441
sbsg63
g1
(g21
g3
Ntp310
Rp311
(dp312
g25
g1
(g26
g3
Ntp313
Rp314
(dp315
g30
I01
sg31
I19
sg32
I-7
sg33
I11
sbsg34
I132919
sg35
I-96178
sg36
S'Var11'
p316
sg38
g39
(g43
S',\x80&\xb3\x1d{\x87\xc0'
p317
tp318
Rp319
sg49
g39
(g43
S'\xd9\xf6\x12\xd5\xb99\x90@'
p320
tp321
Rp322
sbsg36
S'Mult_x3[k]'
p323
sg31
I19
sg148
g1
(g21
g3
Ntp324
Rp325
(dp326
g25
g1
(g26
g3
Ntp327
Rp328
(dp329
g30
I01
sg31
I19
sg32
I-7
sg33
I11
sbsg34
I185123
sg35
I-133952
sg36
g303
sg38
g39
(g43
S'\xe2\xbc\x94\x8b\xfcY\x90\xc0'
p330
tp331
Rp332
sg49
g39
(g43
S'\xe6;^}\x18\x99\x96@'
p333
tp334
Rp335
sbsg161
I0
sbsg213
Nsg221
I0
sbag1
(g2
g3
Ntp336
Rp337
(dp338
g7
g1
(g101
g3
Ntp339
Rp340
(dp341
g92
g1
(g78
g3
Ntp342
Rp343
(dp344
g82
F5.08626302081483e-06
sg83
I0
sg84
g85
sg86
g87
(S'\x04c\x00\x005\x00\x00\x00\x07\x00\x00\x00\x00\x00\x00\x00\x00\xe0\xff\xff'
p345
tp346
Rp347
sg91
F0.003906242549419403
sbsg12
I1
sg13
I19
sg15
Nsg77
g1
(g78
g3
Ntp348
Rp349
(dp350
g82
I0
sg83
I0
sg84
g85
sg86
I0
sg91
I0
sbsg114
g115
sg116
I0
sg117
g1
(g118
g3
Ntp351
Rp352
(dp353
g122
g39
(g43
S'\xbf)zgMF\xec?'
p354
tp355
Rp356
sg25
g1
(g26
g3
Ntp357
Rp358
(dp359
g30
I01
sg31
I20
sg32
I-19
sg33
I0
sbsg129
I463251
sbsg130
S'x4[k]'
p360
sg132
I-7
sg133
g1
(g118
g3
Ntp361
Rp362
(dp363
g122
g356
sg25
g1
(g26
g3
Ntp364
Rp365
(dp366
g30
I01
sg31
I20
sg32
I-19
sg33
I0
sbsg129
I463251
sbsg63
g1
(g21
g3
Ntp367
Rp368
(dp369
g25
g1
(g26
g3
Ntp370
Rp371
(dp372
g30
I01
sg31
I19
sg32
I-7
sg33
I11
sbsg34
I172806
sg35
I-118120
sg36
S'Var13'
p373
sg38
g39
(g43
S'I\x96\\W\x86\xd6\x8c\xc0'
p374
tp375
Rp376
sg49
g39
(g43
S'\xb6\xdf\xb7\x1e.\x18\x95@'
p377
tp378
Rp379
sbsg36
S'Mult_x4[k]'
p380
sg31
I19
sg148
g1
(g21
g3
Ntp381
Rp382
(dp383
g25
g1
(g26
g3
Ntp384
Rp385
(dp386
g30
I01
sg31
I19
sg32
I-7
sg33
I11
sbsg34
I195574
sg35
I-133684
sg36
g360
sg38
g39
(g43
S'\x98\xf0\x1e\xc4\x9cQ\x90\xc0'
p387
tp388
Rp389
sg49
g39
(g43
S'vi\xe11\xb1\xdf\x97@'
p390
tp391
Rp392
sbsg161
I0
sbsg213
Nsg221
I0
sbag1
(g2
g3
Ntp393
Rp394
(dp395
g7
g1
(g101
g3
Ntp396
Rp397
(dp398
g92
g1
(g78
g3
Ntp399
Rp400
(dp401
g82
F1.2715657552037074e-06
sg83
I0
sg84
g85
sg86
g87
(S'\x04c\x00\x005\x00\x00\x00\x08\x00\x00\x00\x00\x00\x00\x00\x00\xe0\xff\xff'
p402
tp403
Rp404
sg91
F0.0019531212747097015
sbsg12
I1
sg13
I19
sg15
Nsg77
g1
(g78
g3
Ntp405
Rp406
(dp407
g82
I0
sg83
I0
sg84
g85
sg86
I0
sg91
I0
sbsg114
g115
sg116
I0
sg117
g1
(g118
g3
Ntp408
Rp409
(dp410
g122
g39
(g43
S'\xfb1\x06\xdbq\x06\xe7?'
p411
tp412
Rp413
sg25
g1
(g26
g3
Ntp414
Rp415
(dp416
g30
I01
sg31
I21
sg32
I-20
sg33
I0
sbsg129
I754489
sbsg130
S'x5[k]'
p417
sg132
I-8
sg133
g1
(g118
g3
Ntp418
Rp419
(dp420
g122
g413
sg25
g1
(g26
g3
Ntp421
Rp422
(dp423
g30
I01
sg31
I21
sg32
I-20
sg33
I0
sbsg129
I754489
sbsg63
g1
(g21
g3
Ntp424
Rp425
(dp426
g25
g1
(g26
g3
Ntp427
Rp428
(dp429
g30
I01
sg31
I19
sg32
I-8
sg33
I10
sbsg34
I251816
sg35
I-179834
sg36
S'Var15'
p430
sg38
g39
(g43
S'\xe8;=5\xcc\xf3\x85\xc0'
p431
tp432
Rp433
sg49
g39
(g43
S'\x80\x1fX\t>\xbd\x8e@'
p434
tp435
Rp436
sbsg36
S'Mult_x5[k]'
p437
sg31
I19
sg148
g1
(g21
g3
Ntp438
Rp439
(dp440
g25
g1
(g26
g3
Ntp441
Rp442
(dp443
g30
I01
sg31
I19
sg32
I-7
sg33
I11
sbsg34
I174985
sg35
I-124965
sg36
g417
sg38
g39
(g43
S'Y\xfb\x1b\xd6L\x82\x8e\xc0'
p444
tp445
Rp446
sg49
g39
(g43
S'\x9e\x97\x10,E\\\x95@'
p447
tp448
Rp449
sbsg161
I0
sbsg213
Nsg221
I0
sbag1
(g2
g3
Ntp450
Rp451
(dp452
g7
g1
(g101
g3
Ntp453
Rp454
(dp455
g92
g1
(g78
g3
Ntp456
Rp457
(dp458
g82
F1.2715657552037074e-06
sg83
I0
sg84
g85
sg86
g87
(S'\x04c\x00\x005\x00\x00\x00\x08\x00\x00\x00\x00\x00\x00\x00\x00\xe0\xff\xff'
p459
tp460
Rp461
sg91
F0.0019531212747097015
sbsg12
I1
sg13
I19
sg15
Nsg77
g1
(g78
g3
Ntp462
Rp463
(dp464
g82
I0
sg83
I0
sg84
g85
sg86
I0
sg91
I0
sbsg114
g115
sg116
I0
sg117
g1
(g118
g3
Ntp465
Rp466
(dp467
g122
g39
(g43
S'\xa3\x97\xd7\x8fKk\xe8?'
p468
tp469
Rp470
sg25
g1
(g26
g3
Ntp471
Rp472
(dp473
g30
I01
sg31
I21
sg32
I-20
sg33
I0
sbsg129
I800166
sbsg130
S'x6[k]'
p474
sg132
I-8
sg133
g1
(g118
g3
Ntp475
Rp476
(dp477
g122
g470
sg25
g1
(g26
g3
Ntp478
Rp479
(dp480
g30
I01
sg31
I21
sg32
I-20
sg33
I0
sbsg129
I800166
sbsg63
g1
(g21
g3
Ntp481
Rp482
(dp483
g25
g1
(g26
g3
Ntp484
Rp485
(dp486
g30
I01
sg31
I19
sg32
I-8
sg33
I10
sbsg34
I239936
sg35
I-164007
sg36
S'Var17'
p487
sg38
g39
(g43
S'\xfc2\xe3\xbb8\x05\x84\xc0'
p488
tp489
Rp490
sg49
g39
(g43
S'%\xae4h\x02J\x8d@'
p491
tp492
Rp493
sbsg36
S'Mult_x6[k]'
p494
sg31
I19
sg148
g1
(g21
g3
Ntp495
Rp496
(dp497
g25
g1
(g26
g3
Ntp498
Rp499
(dp500
g30
I01
sg31
I19
sg32
I-7
sg33
I11
sbsg34
I157212
sg35
I-107461
sg36
g474
sg38
g39
(g43
S'\xfb\xd3\x81\xb3V<\x8a\xc0'
p501
tp502
Rp503
sg49
g39
(g43
S'\xba\x85\x02\x9b\xe00\x93@'
p504
tp505
Rp506
sbsg161
I0
sbsg213
Nsg221
I0
sbag1
(g2
g3
Ntp507
Rp508
(dp509
g7
g1
(g101
g3
Ntp510
Rp511
(dp512
g92
g1
(g78
g3
Ntp513
Rp514
(dp515
g82
F1.2715657552037074e-06
sg83
I0
sg84
g85
sg86
g87
(S'\x04c\x00\x005\x00\x00\x00\x08\x00\x00\x00\x00\x00\x00\x00\x00\xe0\xff\xff'
p516
tp517
Rp518
sg91
F0.0019531212747097015
sbsg12
I1
sg13
I19
sg15
Nsg77
g1
(g78
g3
Ntp519
Rp520
(dp521
g82
I0
sg83
I0
sg84
g85
sg86
I0
sg91
I0
sbsg114
g115
sg116
I0
sg117
g1
(g118
g3
Ntp522
Rp523
(dp524
g122
g39
(g43
S'k\x9b5\xa6\\\\\xe8?'
p525
tp526
Rp527
sg25
g1
(g26
g3
Ntp528
Rp529
(dp530
g30
I01
sg31
I21
sg32
I-20
sg33
I0
sbsg129
I798254
sbsg130
S'x7[k]'
p531
sg132
I-8
sg133
g1
(g118
g3
Ntp532
Rp533
(dp534
g122
g527
sg25
g1
(g26
g3
Ntp535
Rp536
(dp537
g30
I01
sg31
I21
sg32
I-20
sg33
I0
sbsg129
I798254
sbsg63
g1
(g21
g3
Ntp538
Rp539
(dp540
g25
g1
(g26
g3
Ntp541
Rp542
(dp543
g30
I01
sg31
I19
sg32
I-8
sg33
I10
sbsg34
I217518
sg35
I-148683
sg36
S'Var19'
p544
sg38
g39
(g43
S'\xf3\x9d\x11r[&\x82\xc0'
p545
tp546
Rp547
sg49
g39
(g43
S'\x01\x8d\x8b\xd1r\x8d\x8a@'
p548
tp549
Rp550
sbsg36
S'Mult_x7[k]'
p551
sg31
I19
sg148
g1
(g21
g3
Ntp552
Rp553
(dp554
g25
g1
(g26
g3
Ntp555
Rp556
(dp557
g30
I01
sg31
I19
sg32
I-7
sg33
I11
sbsg34
I142865
sg35
I-97654
sg36
g531
sg38
g39
(g43
S'\xe9\xf1\x1f9d\xd7\x87\xc0'
p558
tp559
Rp560
sg49
g39
(g43
S'-\xff\x14\x92\x84p\x91@'
p561
tp562
Rp563
sbsg161
I0
sbsg213
Nsg221
I0
sbag1
(g2
g3
Ntp564
Rp565
(dp566
g7
g1
(g101
g3
Ntp567
Rp568
(dp569
g92
g1
(g78
g3
Ntp570
Rp571
(dp572
g82
F1.2715657552037074e-06
sg83
I0
sg84
g85
sg86
g87
(S'\x04c\x00\x005\x00\x00\x00\x08\x00\x00\x00\x00\x00\x00\x00\x00\xe0\xff\xff'
p573
tp574
Rp575
sg91
F0.0019531212747097015
sbsg12
I1
sg13
I19
sg15
Nsg77
g1
(g78
g3
Ntp576
Rp577
(dp578
g82
I0
sg83
I0
sg84
g85
sg86
I0
sg91
I0
sbsg114
g115
sg116
I0
sg117
g1
(g118
g3
Ntp579
Rp580
(dp581
g122
g39
(g43
S'7M\xb6bl\xc8\xe0?'
p582
tp583
Rp584
sg25
g1
(g26
g3
Ntp585
Rp586
(dp587
g30
I01
sg31
I21
sg32
I-20
sg33
I0
sbsg129
I549942
sbsg130
S'x8[k]'
p588
sg132
I-8
sg133
g1
(g118
g3
Ntp589
Rp590
(dp591
g122
g584
sg25
g1
(g26
g3
Ntp592
Rp593
(dp594
g30
I01
sg31
I21
sg32
I-20
sg33
I0
sbsg129
I549942
sbsg63
g1
(g21
g3
Ntp595
Rp596
(dp597
g25
g1
(g26
g3
Ntp598
Rp599
(dp600
g30
I01
sg31
I19
sg32
I-8
sg33
I10
sbsg34
I159404
sg35
I-108960
sg36
S'Var21'
p601
sg38
g39
(g43
S'\x8b\x95\xd9\x8d\x00\x9az\xc0'
p602
tp603
Rp604
sg49
g39
(g43
S'k\x9a\xfb\xf5cu\x83@'
p605
tp606
Rp607
sbsg36
S'Mult_x8[k]'
p608
sg31
I19
sg148
g1
(g21
g3
Ntp609
Rp610
(dp611
g25
g1
(g26
g3
Ntp612
Rp613
(dp614
g30
I01
sg31
I19
sg32
I-7
sg33
I11
sbsg34
I151968
sg35
I-103877
sg36
g588
sg38
g39
(g43
S'\t&6\xb8R\\\x89\xc0'
p615
tp616
Rp617
sg49
g39
(g43
S'\xe4us\x9e\x03\x8d\x92@'
p618
tp619
Rp620
sbsg161
I0
sbsg213
Nsg221
I0
sbag1
(g2
g3
Ntp621
Rp622
(dp623
g7
g1
(g8
g3
Ntp624
Rp625
(dp626
g12
Nsg13
(lp627
I0
aI0
asg15
Nsg16
(lp628
I0
aI0
asg18
I01
sg19
(lp629
g1
(g21
g3
Ntp630
Rp631
(dp632
g25
g1
(g26
g3
Ntp633
Rp634
(dp635
g30
I01
sg31
I20
sg32
I-9
sg33
I10
sbsg34
I597040
sg35
I-469239
sg36
S'Var114'
p636
sg38
g39
(g43
S'(8R\xd2\xd9\xa3\x8c\xc0'
p637
tp638
Rp639
sg49
g39
(g43
S'\x1a\x8e\xfb\xa7a8\x92@'
p640
tp641
Rp642
sbag1
(g21
g3
Ntp643
Rp644
(dp645
g25
g634
sg34
I229882
sg35
I-235729
sg36
S'Var115'
p646
sg38
g39
(g43
S'4\xab\xc7\x99\x85\xc6|\xc0'
p647
tp648
Rp649
sg49
g39
(g43
S'\xa9#\x990\xd5\x0f|@'
p650
tp651
Rp652
sbasg63
g1
(g21
g3
Ntp653
Rp654
(dp655
g25
g634
sg34
I826922
sg35
I-704968
sg36
S'Var116'
p656
sg38
g39
(g43
S'\xe1\x06\x9bO\x8e\x83\x95\xc0'
p657
tp658
Rp659
sg49
g39
(g43
S'\x04\xd7!\xf4V<\x99@'
p660
tp661
Rp662
sbsg36
S'Add_18'
p663
sg75
(lp664
I0
aI0
asg77
g1
(g78
g3
Ntp665
Rp666
(dp667
g82
F6.039937337234957e-06
sg83
I0
sg84
g85
sg86
g87
(S'\x04c\x00\x005\x00\x00\x00\x06\x00\x00\x00\x00\x00\x00\x00\x00\xf0\xff\xdf'
p668
tp669
Rp670
sg91
F0.006835930049419403
sbsg92
g1
(g78
g3
Ntp671
Rp672
(dp673
g82
F4.76837158203125e-06
sg83
I0
sg84
g85
sg86
g87
(S'\x04c\x00\x005\x00\x00\x00\x07\x00\x00\x00\x00\x00\x00\x00\x00\x00\x00\xc0'
p674
tp675
Rp676
sg91
F0.0029296875
sbsg99
(lp677
g1
(g8
g3
Ntp678
Rp679
(dp680
g12
Nsg13
(lp681
I0
aI0
asg15
Nsg16
(lp682
I0
aI0
asg18
I00
sg19
(lp683
g1
(g21
g3
Ntp684
Rp685
(dp686
g25
g1
(g26
g3
Ntp687
Rp688
(dp689
g30
I01
sg31
I20
sg32
I-9
sg33
I10
sbsg34
I462210
sg35
I-364860
sg36
S'Var109'
p690
sg38
g39
(g43
S'\xe7(\xdd\xb9\xeeD\x86\xc0'
p691
tp692
Rp693
sg49
g39
(g43
S'\x11\x862s\t6\x8c@'
p694
tp695
Rp696
sbag1
(g21
g3
Ntp697
Rp698
(dp699
g25
g688
sg34
I134830
sg35
I-104379
sg36
S'Var110'
p700
sg38
g39
(g43
S'\x04=\xd4a\xac{i\xc0'
p701
tp702
Rp703
sg49
g39
(g43
S'F,\x89\xb9sup@'
p704
tp705
Rp706
sbasg63
g1
(g21
g3
Ntp707
Rp708
(dp709
g25
g688
sg34
I597040
sg35
I-469239
sg36
S'Var111'
p710
sg38
g639
sg49
g642
sbsg36
S'Add_17'
p711
sg75
(lp712
I0
aI0
asg77
g1
(g78
g3
Ntp713
Rp714
(dp715
g82
F6.357828776018537e-07
sg83
I0
sg84
g85
sg86
g87
(S'\x04c\x00\x005\x00\x00\x00\x08\x00\x00\x00\x00\x00\x00\x00\x00\xe0\xff\xff'
p716
tp717
Rp718
sg91
F0.0019531212747097015
sbsg92
g1
(g78
g3
Ntp719
Rp720
(dp721
g82
I0
sg83
I0
sg84
g85
sg86
I0
sg91
I0
sbsg99
(lp722
g1
(g101
g3
Ntp723
Rp724
(dp725
g92
g1
(g78
g3
Ntp726
Rp727
(dp728
g82
F3.1789143880092685e-07
sg83
I0
sg84
g85
sg86
g87
(S'\x04c\x00\x005\x00\x00\x00\t\x00\x00\x00\x00\x00\x00\x00\x00\xe0\xff\xff'
p729
tp730
Rp731
sg91
F0.0009765606373548508
sbsg12
I1
sg13
I19
sg15
Nsg77
g1
(g78
g3
Ntp732
Rp733
(dp734
g82
I0
sg83
I0
sg84
g85
sg86
I0
sg91
I0
sbsg114
g115
sg116
I1
sg117
g1
(g118
g3
Ntp735
Rp736
(dp737
g122
g39
(g43
S'\x00\x00\x00\x00\x00\x00\xf0?'
p738
tp739
Rp740
sg25
g1
(g26
g3
Ntp741
Rp742
(dp743
g30
I01
sg31
I22
sg32
I-20
sg33
I1
sbsg129
I1048576
sbsg130
S't2[k+1]'
p744
sg132
I-9
sg133
g1
(g118
g3
Ntp745
Rp746
(dp747
g122
g740
sg25
g1
(g26
g3
Ntp748
Rp749
(dp750
g30
I01
sg31
I22
sg32
I-20
sg33
I1
sbsg129
I1048576
sbsg63
g1
(g21
g3
Ntp751
Rp752
(dp753
g25
g1
(g26
g3
Ntp754
Rp755
(dp756
g30
I01
sg31
I20
sg32
I-9
sg33
I10
sbsg34
I462210
sg35
I-364860
sg36
S'Var24'
p757
sg38
g693
sg49
g696
sbsg36
S'Mult_t2[k+1]'
p758
sg31
I21
sg148
g1
(g21
g3
Ntp759
Rp760
(dp761
g25
g1
(g26
g3
Ntp762
Rp763
(dp764
g30
I01
sg31
I19
sg32
I-8
sg33
I10
sbsg34
I231105
sg35
I-182430
sg36
g744
sg38
g39
(g43
S'\xe7(\xdd\xb9\xeeD\x86\xc0'
p765
tp766
Rp767
sg49
g39
(g43
S'\x11\x862s\t6\x8c@'
p768
tp769
Rp770
sbsg161
I0
sbag1
(g101
g3
Ntp771
Rp772
(dp773
g92
g1
(g78
g3
Ntp774
Rp775
(dp776
g82
F3.1789143880092685e-07
sg83
I0
sg84
g85
sg86
g87
(S'\x04c\x00\x005\x00\x00\x00\t\x00\x00\x00\x00\x00\x00\x00\x00\xe0\xff\xff'
p777
tp778
Rp779
sg91
F0.0009765606373548508
sbsg12
I1
sg13
I19
sg15
Nsg77
g1
(g78
g3
Ntp780
Rp781
(dp782
g82
I0
sg83
I0
sg84
g85
sg86
I0
sg91
I0
sbsg114
g115
sg116
I2
sg117
g1
(g118
g3
Ntp783
Rp784
(dp785
g122
g39
(g43
S'\xa6}\x8dE\xf4\xf5\xcf?'
p786
tp787
Rp788
sg25
g1
(g26
g3
Ntp789
Rp790
(dp791
g30
I01
sg31
I20
sg32
I-21
sg33
I-2
sbsg129
I523645
sbsg130
S'x1[k]'
p792
sg132
I-9
sg133
g1
(g118
g3
Ntp793
Rp794
(dp795
g122
g788
sg25
g1
(g26
g3
Ntp796
Rp797
(dp798
g30
I01
sg31
I20
sg32
I-21
sg33
I-2
sbsg129
I523645
sbsg63
g1
(g21
g3
Ntp799
Rp800
(dp801
g25
g1
(g26
g3
Ntp802
Rp803
(dp804
g30
I01
sg31
I19
sg32
I-9
sg33
I9
sbsg34
I134830
sg35
I-104379
sg36
S'Var25'
p805
sg38
g703
sg49
g706
sbsg36
S'Mult_x1[k]'
p806
sg31
I21
sg148
g1
(g21
g3
Ntp807
Rp808
(dp809
g25
g1
(g26
g3
Ntp810
Rp811
(dp812
g30
I01
sg31
I19
sg32
I-7
sg33
I11
sbsg34
I134996
sg35
I-104507
sg36
g792
sg38
g39
(g43
S'\xdb\xd0g\xe2\xae\x83\x89\xc0'
p813
tp814
Rp815
sg49
g39
(g43
S'\x91\xb8\xba\x15\xa0z\x90@'
p816
tp817
Rp818
sbsg161
I0
sbasg210
g724
sg211
(lp819
I0
aI0
asbag1
(g8
g3
Ntp820
Rp821
(dp822
g12
Nsg13
(lp823
I0
aI0
asg15
Nsg16
(lp824
I0
aI0
asg18
I00
sg19
(lp825
g1
(g21
g3
Ntp826
Rp827
(dp828
g25
g1
(g26
g3
Ntp829
Rp830
(dp831
g30
I01
sg31
I19
sg32
I-9
sg33
I9
sbsg34
I124891
sg35
I-163963
sg36
S'Var44'
p832
sg38
g39
(g43
S'|p\x88\x11\xd4\x03t\xc0'
p833
tp834
Rp835
sg49
g39
(g43
S'r\xc1\x82\xe5\xb5}n@'
p836
tp837
Rp838
sbag1
(g21
g3
Ntp839
Rp840
(dp841
g25
g830
sg34
I104991
sg35
I-71766
sg36
S'Var45'
p842
sg38
g39
(g43
S'ou~\x10c\x85a\xc0'
p843
tp844
Rp845
sg49
g39
(g43
S'\xe0\x85\xaf{\xf4\xa1i@'
p846
tp847
Rp848
sbasg63
g1
(g21
g3
Ntp849
Rp850
(dp851
g25
g830
sg34
I229882
sg35
I-235729
sg36
S'Var46'
p852
sg38
g649
sg49
g652
sbsg36
S'Add_4'
p853
sg75
(lp854
I0
aI0
asg77
g1
(g78
g3
Ntp855
Rp856
(dp857
g82
F6.357828776018537e-07
sg83
I0
sg84
g85
sg86
g87
(S'\x04c\x00\x005\x00\x00\x00\x08\x00\x00\x00\x00\x00\x00\x00\x00\xe0\xff\xff'
p858
tp859
Rp860
sg91
F0.0019531212747097015
sbsg92
g1
(g78
g3
Ntp861
Rp862
(dp863
g82
I0
sg83
I0
sg84
g85
sg86
I0
sg91
I0
sbsg99
(lp864
g1
(g101
g3
Ntp865
Rp866
(dp867
g92
g1
(g78
g3
Ntp868
Rp869
(dp870
g82
F3.1789143880092685e-07
sg83
I0
sg84
g85
sg86
g87
(S'\x04c\x00\x005\x00\x00\x00\t\x00\x00\x00\x00\x00\x00\x00\x00\xe0\xff\xff'
p871
tp872
Rp873
sg91
F0.0009765606373548508
sbsg12
I1
sg13
I19
sg15
Nsg77
g1
(g78
g3
Ntp874
Rp875
(dp876
g82
I0
sg83
I0
sg84
g85
sg86
I0
sg91
I0
sbsg114
g115
sg116
I0
sg117
g1
(g118
g3
Ntp877
Rp878
(dp879
g122
g39
(g43
S'\xc0\xca\xf3\xb0\rC\xc9\xbf'
p880
tp881
Rp882
sg25
g1
(g26
g3
Ntp883
Rp884
(dp885
g30
I01
sg31
I20
sg32
I-21
sg33
I-2
sbsg129
I-413891
sbsg130
S't1[k+1]'
p886
sg132
I-9
sg133
g1
(g118
g3
Ntp887
Rp888
(dp889
g122
g882
sg25
g1
(g26
g3
Ntp890
Rp891
(dp892
g30
I01
sg31
I20
sg32
I-21
sg33
I-2
sbsg129
I-413891
sbsg63
g1
(g21
g3
Ntp893
Rp894
(dp895
g25
g1
(g26
g3
Ntp896
Rp897
(dp898
g30
I01
sg31
I19
sg32
I-9
sg33
I9
sbsg34
I124891
sg35
I-163963
sg36
S'Var23'
p899
sg38
g835
sg49
g838
sbsg36
S'Mult_t1[k+1]'
p900
sg31
I21
sg148
g1
(g21
g3
Ntp901
Rp902
(dp903
g25
g1
(g26
g3
Ntp904
Rp905
(dp906
g30
I01
sg31
I19
sg32
I-7
sg33
I11
sbsg34
I207696
sg35
I-158203
sg36
g886
sg38
g39
(g43
S'S\x17\xee\x7f\xdbO\x93\xc0'
p907
tp908
Rp909
sg49
g39
(g43
S'\xf9$\x95\xaa\x7fZ\x99@'
p910
tp911
Rp912
sbsg161
I0
sbag1
(g101
g3
Ntp913
Rp914
(dp915
g92
g1
(g78
g3
Ntp916
Rp917
(dp918
g82
F3.1789143880092685e-07
sg83
I0
sg84
g85
sg86
g87
(S'\x04c\x00\x005\x00\x00\x00\t\x00\x00\x00\x00\x00\x00\x00\x00\xe0\xff\xff'
p919
tp920
Rp921
sg91
F0.0009765606373548508
sbsg12
I1
sg13
I19
sg15
Nsg77
g1
(g78
g3
Ntp922
Rp923
(dp924
g82
I0
sg83
I0
sg84
g85
sg86
I0
sg91
I0
sbsg114
g115
sg116
I3
sg117
g1
(g118
g3
Ntp925
Rp926
(dp927
g122
g39
(g43
S'j\xb6\xb1\xd7\x04\xb0\xeb\xbf'
p928
tp929
Rp930
sg25
g1
(g26
g3
Ntp931
Rp932
(dp933
g30
I01
sg31
I19
sg32
I-18
sg33
I0
sbsg129
I-226817
sbsg130
S'u1[k]'
p934
sg132
I-9
sg133
g1
(g118
g3
Ntp935
Rp936
(dp937
g122
g930
sg25
g1
(g26
g3
Ntp938
Rp939
(dp940
g30
I01
sg31
I19
sg32
I-18
sg33
I0
sbsg129
I-226817
sbsg63
g1
(g21
g3
Ntp941
Rp942
(dp943
g25
g1
(g26
g3
Ntp944
Rp945
(dp946
g30
I01
sg31
I18
sg32
I-9
sg33
I8
sbsg34
I104991
sg35
I-71766
sg36
S'Var26'
p947
sg38
g845
sg49
g848
sbsg36
S'Mult_u1[k]'
p948
sg31
I21
sg148
g1
(g21
g3
Ntp949
Rp950
(dp951
g25
g1
(g26
g3
Ntp952
Rp953
(dp954
g30
I01
sg31
I19
sg32
I-10
sg33
I8
sbsg34
I165888
sg35
I-242688
sg36
g934
sg38
g39
(g43
S'\x00\x00\x00\x00\x00\xa0m\xc0'
p955
tp956
Rp957
sg49
g39
(g43
S'\x00\x00\x00\x00\x00@d@'
p958
tp959
Rp960
sbsg161
I0
sbasg210
g866
sg211
(lp961
I0
aI0
asbasg210
g724
sg211
(lp962
I0
aI0
asbsg213
g1
(g21
g3
Ntp963
Rp964
(dp965
g25
g1
(g26
g3
Ntp966
Rp967
(dp968
g30
I01
sg31
I19
sg32
I-7
sg33
I11
sbsg34
I206730
sg35
I-176242
sg36
S'Var22'
p969
sg38
g659
sg49
g662
sbsg221
I2
sbag1
(g2
g3
Ntp970
Rp971
(dp972
g7
g1
(g8
g3
Ntp973
Rp974
(dp975
g12
Nsg13
(lp976
I0
aI0
asg15
Nsg16
(lp977
I0
aI0
asg18
I01
sg19
(lp978
g1
(g21
g3
Ntp979
Rp980
(dp981
g25
g1
(g26
g3
Ntp982
Rp983
(dp984
g30
I01
sg31
I21
sg32
I-9
sg33
I11
sbsg34
I783333
sg35
I-608040
sg36
S'Var209'
p985
sg38
g39
(g43
S'\x02[b\xb1P\x8e\x92\xc0'
p986
tp987
Rp988
sg49
g39
(g43
S'\xc8c]l\xca\xe7\x97@'
p989
tp990
Rp991
sbag1
(g21
g3
Ntp992
Rp993
(dp994
g25
g983
sg34
I172122
sg35
I-225985
sg36
S'Var210'
p995
sg38
g39
(g43
S'0\x96\x94\xde\t\x96{\xc0'
p996
tp997
Rp998
sg49
g39
(g43
S'\x8c\x06\x1b[\xd6\x02u@'
p999
tp1000
Rp1001
sbasg63
g1
(g21
g3
Ntp1002
Rp1003
(dp1004
g25
g983
sg34
I955455
sg35
I-834025
sg36
S'Var211'
p1005
sg38
g39
(g43
S'\x8e\x80\x07)\xd3s\x99\xc0'
p1006
tp1007
Rp1008
sg49
g39
(g43
S'k%$\x03\x80(\x9d@'
p1009
tp1010
Rp1011
sbsg36
S'Add_36'
p1012
sg75
(lp1013
I0
aI0
asg77
g1
(g78
g3
Ntp1014
Rp1015
(dp1016
g82
F6.039937337218694e-06
sg83
I0
sg84
g85
sg86
g87
(S'\x04c\x00\x005\x00\x00\x00\x06\x00\x00\x00\x00\x00\x00\x00\x00\xe7\xff\xdf'
p1017
tp1018
Rp1019
sg91
F0.006835925858467817
sbsg92
g1
(g78
g3
Ntp1020
Rp1021
(dp1022
g82
F4.76837158203125e-06
sg83
I0
sg84
g85
sg86
g87
(S'\x04c\x00\x005\x00\x00\x00\x07\x00\x00\x00\x00\x00\x00\x00\x00\x00\x00\xc0'
p1023
tp1024
Rp1025
sg91
F0.0029296875
sbsg99
(lp1026
g1
(g8
g3
Ntp1027
Rp1028
(dp1029
g12
Nsg13
(lp1030
I0
aI0
asg15
Nsg16
(lp1031
I0
aI0
asg18
I00
sg19
(lp1032
g1
(g21
g3
Ntp1033
Rp1034
(dp1035
g25
g1
(g26
g3
Ntp1036
Rp1037
(dp1038
g30
I01
sg31
I21
sg32
I-9
sg33
I11
sbsg34
I156649
sg35
I-113348
sg36
S'Var204'
p1039
sg38
g39
(g43
S'\x8cX\xc7\x01D\xack\xc0'
p1040
tp1041
Rp1042
sg49
g39
(g43
S'\x96\xaa_\xc1G\x1fs@'
p1043
tp1044
Rp1045
sbag1
(g21
g3
Ntp1046
Rp1047
(dp1048
g25
g1037
sg34
I626684
sg35
I-494692
sg36
S'Var205'
p1049
sg38
g39
(g43
S'\xe2\xdfRb\x901\x8e\xc0'
p1050
tp1051
Rp1052
sg49
g39
(g43
S'#y\x05|\xf8\x1f\x93@'
p1053
tp1054
Rp1055
sbasg63
g1
(g21
g3
Ntp1056
Rp1057
(dp1058
g25
g1037
sg34
I783333
sg35
I-608040
sg36
S'Var206'
p1059
sg38
g988
sg49
g991
sbsg36
S'Add_35'
p1060
sg75
(lp1061
I0
aI0
asg77
g1
(g78
g3
Ntp1062
Rp1063
(dp1064
g82
F6.357828775855907e-07
sg83
I0
sg84
g85
sg86
g87
(S'\x04c\x00\x005\x00\x00\x00\x08\x00\x00\x00\x00\x00\x00\x00\x00\xbc\xff\xff'
p1065
tp1066
Rp1067
sg91
F0.0019531170837581158
sbsg92
g1
(g78
g3
Ntp1068
Rp1069
(dp1070
g82
I0
sg83
I0
sg84
g85
sg86
I0
sg91
I0
sbsg99
(lp1071
g1
(g101
g3
Ntp1072
Rp1073
(dp1074
g92
g1
(g78
g3
Ntp1075
Rp1076
(dp1077
g82
F3.1789143880201105e-07
sg83
I0
sg84
g85
sg86
g87
(S'\x04c\x00\x005\x00\x00\x00\t\x00\x00\x00\x00\x00\x00\x00\x00\xf8\xff\xff'
p1078
tp1079
Rp1080
sg91
F0.0009765620343387127
sbsg12
I1
sg13
I21
sg15
Nsg77
g1
(g78
g3
Ntp1081
Rp1082
(dp1083
g82
I0
sg83
I0
sg84
g85
sg86
I0
sg91
I0
sbsg114
g115
sg116
I1
sg117
g1
(g118
g3
Ntp1084
Rp1085
(dp1086
g122
g39
(g43
S'\xa0O\\\xac?\xdb\xd2?'
p1087
tp1088
Rp1089
sg25
g1
(g26
g3
Ntp1090
Rp1091
(dp1092
g30
I01
sg31
I23
sg32
I-23
sg33
I-1
sbsg129
I2471551
sbsg130
S't3[k+1]'
p1093
sg132
I-9
sg133
g1
(g118
g3
Ntp1094
Rp1095
(dp1096
g122
g1089
sg25
g1
(g26
g3
Ntp1097
Rp1098
(dp1099
g30
I01
sg31
I23
sg32
I-23
sg33
I-1
sbsg129
I2471551
sbsg63
g1
(g21
g3
Ntp1100
Rp1101
(dp1102
g25
g1
(g26
g3
Ntp1103
Rp1104
(dp1105
g30
I01
sg31
I19
sg32
I-9
sg33
I9
sbsg34
I156649
sg35
I-113348
sg36
S'Var119'
p1106
sg38
g1042
sg49
g1045
sbsg36
S'Mult_t3[k+1]'
p1107
sg31
I21
sg148
g1
(g21
g3
Ntp1108
Rp1109
(dp1110
g25
g1
(g26
g3
Ntp1111
Rp1112
(dp1113
g30
I01
sg31
I19
sg32
I-7
sg33
I11
sbsg34
I132919
sg35
I-96178
sg36
g1093
sg38
g39
(g43
S'\x1c\x80&\xb3\x1d{\x87\xc0'
p1114
tp1115
Rp1116
sg49
g39
(g43
S'\xd1\xf6\x12\xd5\xb99\x90@'
p1117
tp1118
Rp1119
sbsg161
I0
sbag1
(g101
g3
Ntp1120
Rp1121
(dp1122
g92
g1
(g78
g3
Ntp1123
Rp1124
(dp1125
g82
F3.178914387835796e-07
sg83
I0
sg84
g85
sg86
g87
(S'\x04c\x00\x005\x00\x00\x00\t\x00\x00\x00\x00\x00\x00\x00\x00\x80\xff\xff'
p1126
tp1127
Rp1128
sg91
F0.0009765550494194031
sbsg12
I1
sg13
I17
sg15
Nsg77
g1
(g78
g3
Ntp1129
Rp1130
(dp1131
g82
I0
sg83
I0
sg84
g85
sg86
I0
sg91
I0
sbsg114
g115
sg116
I2
sg117
g1
(g118
g3
Ntp1132
Rp1133
(dp1134
g122
g39
(g43
S'\x00\x00\x00\x00\x00\x00\xf0?'
p1135
tp1136
Rp1137
sg25
g1
(g26
g3
Ntp1138
Rp1139
(dp1140
g30
I01
sg31
I21
sg32
I-19
sg33
I1
sbsg129
I524288
sbsg130
S'x2[k]'
p1141
sg132
I-9
sg133
g1
(g118
g3
Ntp1142
Rp1143
(dp1144
g122
g1137
sg25
g1
(g26
g3
Ntp1145
Rp1146
(dp1147
g30
I01
sg31
I21
sg32
I-19
sg33
I1
sbsg129
I524288
sbsg63
g1
(g21
g3
Ntp1148
Rp1149
(dp1150
g25
g1
(g26
g3
Ntp1151
Rp1152
(dp1153
g30
I01
sg31
I21
sg32
I-9
sg33
I11
sbsg34
I626684
sg35
I-494692
sg36
S'Var120'
p1154
sg38
g1052
sg49
g1055
sbsg36
S'Mult_x2[k]'
p1155
sg31
I21
sg148
g1
(g21
g3
Ntp1156
Rp1157
(dp1158
g25
g1
(g26
g3
Ntp1159
Rp1160
(dp1161
g30
I01
sg31
I19
sg32
I-7
sg33
I11
sbsg34
I156671
sg35
I-123673
sg36
g1141
sg38
g39
(g43
S'\xe2\xdfRb\x901\x8e\xc0'
p1162
tp1163
Rp1164
sg49
g39
(g43
S'#y\x05|\xf8\x1f\x93@'
p1165
tp1166
Rp1167
sbsg161
I0
sbasg210
g1073
sg211
(lp1168
I0
aI0
asbag1
(g8
g3
Ntp1169
Rp1170
(dp1171
g12
Nsg13
(lp1172
I0
aI0
asg15
Nsg16
(lp1173
I0
aI0
asg18
I00
sg19
(lp1174
g1
(g21
g3
Ntp1175
Rp1176
(dp1177
g25
g1
(g26
g3
Ntp1178
Rp1179
(dp1180
g30
I01
sg31
I19
sg32
I-9
sg33
I9
sbsg34
I172020
sg35
I-225835
sg36
S'Var139'
p1181
sg38
g39
(g43
S'\x816xa[\x91{\xc0'
p1182
tp1183
Rp1184
sg49
g39
(g43
S'\xf7V\xc0"\xa3\xfft@'
p1185
tp1186
Rp1187
sbag1
(g21
g3
Ntp1188
Rp1189
(dp1190
g25
g1179
sg34
I102
sg35
I-150
sg36
S'Var140'
p1191
sg38
g39
(g43
S'\xa0\xbd~q\xf4\xb9\xd2\xbf'
p1192
tp1193
Rp1194
sg49
g39
(g43
S'\x80\xa8|\xd5\xc2\x99\xc9?'
p1195
tp1196
Rp1197
sbasg63
g1
(g21
g3
Ntp1198
Rp1199
(dp1200
g25
g1179
sg34
I172122
sg35
I-225985
sg36
S'Var141'
p1201
sg38
g998
sg49
g1001
sbsg36
S'Add_22'
p1202
sg75
(lp1203
I0
aI0
asg77
g1
(g78
g3
Ntp1204
Rp1205
(dp1206
g82
F6.357828776018537e-07
sg83
I0
sg84
g85
sg86
g87
(S'\x04c\x00\x005\x00\x00\x00\x08\x00\x00\x00\x00\x00\x00\x00\x00\xe0\xff\xff'
p1207
tp1208
Rp1209
sg91
F0.0019531212747097015
sbsg92
g1
(g78
g3
Ntp1210
Rp1211
(dp1212
g82
I0
sg83
I0
sg84
g85
sg86
I0
sg91
I0
sbsg99
(lp1213
g1
(g101
g3
Ntp1214
Rp1215
(dp1216
g92
g1
(g78
g3
Ntp1217
Rp1218
(dp1219
g82
F3.1789143880092685e-07
sg83
I0
sg84
g85
sg86
g87
(S'\x04c\x00\x005\x00\x00\x00\t\x00\x00\x00\x00\x00\x00\x00\x00\xe0\xff\xff'
p1220
tp1221
Rp1222
sg91
F0.0009765606373548508
sbsg12
I1
sg13
I19
sg15
Nsg77
g1
(g78
g3
Ntp1223
Rp1224
(dp1225
g82
I0
sg83
I0
sg84
g85
sg86
I0
sg91
I0
sbsg114
g115
sg116
I0
sg117
g1
(g118
g3
Ntp1226
Rp1227
(dp1228
g122
g39
(g43
S'\x10\x81\x1d\x17\xbbe\xd1\xbf'
p1229
tp1230
Rp1231
sg25
g1
(g26
g3
Ntp1232
Rp1233
(dp1234
g30
I01
sg31
I21
sg32
I-21
sg33
I-1
sbsg129
I-570078
sbsg130
S't1[k+1]'
p1235
sg132
I-9
sg133
g1
(g118
g3
Ntp1236
Rp1237
(dp1238
g122
g1231
sg25
g1
(g26
g3
Ntp1239
Rp1240
(dp1241
g30
I01
sg31
I21
sg32
I-21
sg33
I-1
sbsg129
I-570078
sbsg63
g1
(g21
g3
Ntp1242
Rp1243
(dp1244
g25
g1
(g26
g3
Ntp1245
Rp1246
(dp1247
g30
I01
sg31
I19
sg32
I-9
sg33
I9
sbsg34
I172020
sg35
I-225835
sg36
S'Var118'
p1248
sg38
g1184
sg49
g1187
sbsg36
S'Mult_t1[k+1]'
p1249
sg31
I21
sg148
g1
(g21
g3
Ntp1250
Rp1251
(dp1252
g25
g1
(g26
g3
Ntp1253
Rp1254
(dp1255
g30
I01
sg31
I19
sg32
I-7
sg33
I11
sbsg34
I207696
sg35
I-158203
sg36
g1235
sg38
g39
(g43
S'S\x17\xee\x7f\xdbO\x93\xc0'
p1256
tp1257
Rp1258
sg49
g39
(g43
S'\xf9$\x95\xaa\x7fZ\x99@'
p1259
tp1260
Rp1261
sbsg161
I0
sbag1
(g101
g3
Ntp1262
Rp1263
(dp1264
g92
g1
(g78
g3
Ntp1265
Rp1266
(dp1267
g82
F3.1789143880092685e-07
sg83
I0
sg84
g85
sg86
g87
(S'\x04c\x00\x005\x00\x00\x00\t\x00\x00\x00\x00\x00\x00\x00\x00\xe0\xff\xff'
p1268
tp1269
Rp1270
sg91
F0.0009765606373548508
sbsg12
I1
sg13
I19
sg15
Nsg77
g1
(g78
g3
Ntp1271
Rp1272
(dp1273
g82
I0
sg83
I0
sg84
g85
sg86
I0
sg91
I0
sbsg114
g115
sg116
I3
sg117
g1
(g118
g3
Ntp1274
Rp1275
(dp1276
g122
g39
(g43
S'\x00  \xc5G:T?'
p1277
tp1278
Rp1279
sg25
g1
(g26
g3
Ntp1280
Rp1281
(dp1282
g30
I01
sg31
I10
sg32
I-18
sg33
I-9
sbsg129
I324
sbsg130
S'u1[k]'
p1283
sg132
I-9
sg133
g1
(g118
g3
Ntp1284
Rp1285
(dp1286
g122
g1279
sg25
g1
(g26
g3
Ntp1287
Rp1288
(dp1289
g30
I01
sg31
I10
sg32
I-18
sg33
I-9
sbsg129
I324
sbsg63
g1
(g21
g3
Ntp1290
Rp1291
(dp1292
g25
g1
(g26
g3
Ntp1293
Rp1294
(dp1295
g30
I01
sg31
I9
sg32
I-9
sg33
I-1
sbsg34
I102
sg35
I-150
sg36
S'Var121'
p1296
sg38
g1194
sg49
g1197
sbsg36
S'Mult_u1[k]'
p1297
sg31
I21
sg148
g1
(g21
g3
Ntp1298
Rp1299
(dp1300
g25
g1
(g26
g3
Ntp1301
Rp1302
(dp1303
g30
I01
sg31
I19
sg32
I-10
sg33
I8
sbsg34
I165888
sg35
I-242688
sg36
g1283
sg38
g39
(g43
S'\x00\x00\x00\x00\x00\xa0m\xc0'
p1304
tp1305
Rp1306
sg49
g39
(g43
S'\x00\x00\x00\x00\x00@d@'
p1307
tp1308
Rp1309
sbsg161
I0
sbasg210
g1215
sg211
(lp1310
I0
aI0
asbasg210
g1073
sg211
(lp1311
I0
aI0
asbsg213
g1
(g21
g3
Ntp1312
Rp1313
(dp1314
g25
g1
(g26
g3
Ntp1315
Rp1316
(dp1317
g30
I01
sg31
I19
sg32
I-7
sg33
I11
sbsg34
I238863
sg35
I-208507
sg36
S'Var117'
p1318
sg38
g1008
sg49
g1011
sbsg221
I2
sbag1
(g2
g3
Ntp1319
Rp1320
(dp1321
g7
g1
(g8
g3
Ntp1322
Rp1323
(dp1324
g12
Nsg13
(lp1325
I0
aI0
asg15
Nsg16
(lp1326
I0
aI0
asg18
I01
sg19
(lp1327
g1
(g21
g3
Ntp1328
Rp1329
(dp1330
g25
g1
(g26
g3
Ntp1331
Rp1332
(dp1333
g30
I01
sg31
I19
sg32
I-9
sg33
I9
sbsg34
I311066
sg35
I-218205
sg36
S'Var304'
p1334
sg38
g39
(g43
S'\xfc~\xb5@\xed\xa2z\xc0'
p1335
tp1336
Rp1337
sg49
g39
(g43
S'\xe2\xf3\xbaPg\xfc\x82@'
p1338
tp1339
Rp1340
sbag1
(g21
g3
Ntp1341
Rp1342
(dp1343
g25
g1332
sg34
I220486
sg35
I-301914
sg36
S'Var305'
p1344
sg38
g39
(g43
S'W\xce\xeb\xccim\x82\xc0'
p1345
tp1346
Rp1347
sg49
g39
(g43
S'\xd2[_\x03.\xeaz@'
p1348
tp1349
Rp1350
sbasg63
g1
(g21
g3
Ntp1351
Rp1352
(dp1353
g25
g1332
sg34
I531552
sg35
I-520119
sg36
S'Var306'
p1354
sg38
g39
(g43
S'\xd5\x8dFm\xe0\xbe\x8f\xc0'
p1355
tp1356
Rp1357
sg49
g39
(g43
S'\xe6P5)\xbf8\x90@'
p1358
tp1359
Rp1360
sbsg36
S'Add_54'
p1361
sg75
(lp1362
I0
aI0
asg77
g1
(g78
g3
Ntp1363
Rp1364
(dp1365
g82
F6.0399373371632374e-06
sg83
I0
sg84
g85
sg86
g87
(S'\x04c\x00\x005\x00\x00\x00\x06\x00\x00\x00\x00\x00\x00\x00\x80\xd7\xff\xdf'
p1366
tp1367
Rp1368
sg91
F0.006835918640717864
sbsg92
g1
(g78
g3
Ntp1369
Rp1370
(dp1371
g82
F4.76837158203125e-06
sg83
I0
sg84
g85
sg86
g87
(S'\x04c\x00\x005\x00\x00\x00\x07\x00\x00\x00\x00\x00\x00\x00\x00\x00\x00\xc0'
p1372
tp1373
Rp1374
sg91
F0.0029296875
sbsg99
(lp1375
g1
(g8
g3
Ntp1376
Rp1377
(dp1378
g12
Nsg13
(lp1379
I0
aI0
asg15
Nsg16
(lp1380
I0
aI0
asg18
I00
sg19
(lp1381
g1
(g21
g3
Ntp1382
Rp1383
(dp1384
g25
g1
(g26
g3
Ntp1385
Rp1386
(dp1387
g30
I01
sg31
I19
sg32
I-9
sg33
I9
sbsg34
I171735
sg35
I-117388
sg36
S'Var299'
p1388
sg38
g39
(g43
S'\xfe\x83\x1a\xff\xc5\xa8l\xc0'
p1389
tp1390
Rp1391
sg49
g39
(g43
S'\x85\xf3\xb6\xc1\xb6\xf6t@'
p1392
tp1393
Rp1394
sbag1
(g21
g3
Ntp1395
Rp1396
(dp1397
g25
g1386
sg34
I139331
sg35
I-100817
sg36
S'Var300'
p1398
sg38
g39
(g43
S'\xfayP\x82\x14\x9dh\xc0'
p1399
tp1400
Rp1401
sg49
g39
(g43
S'?\xf4\xbe\xdf\x17\x02q@'
p1402
tp1403
Rp1404
sbasg63
g1
(g21
g3
Ntp1405
Rp1406
(dp1407
g25
g1386
sg34
I311066
sg35
I-218205
sg36
S'Var301'
p1408
sg38
g1337
sg49
g1340
sbsg36
S'Add_53'
p1409
sg75
(lp1410
I0
aI0
asg77
g1
(g78
g3
Ntp1411
Rp1412
(dp1413
g82
F6.357828776029921e-07
sg83
I0
sg84
g85
sg86
g87
(S'\x04c\x00\x005\x00\x00\x00\x08\x00\x00\x00\x00\x00\x00\x00\x00\xee\xff\xff'
p1414
tp1415
Rp1416
sg91
F0.0019531229045242071
sbsg92
g1
(g78
g3
Ntp1417
Rp1418
(dp1419
g82
I0
sg83
I0
sg84
g85
sg86
I0
sg91
I0
sbsg99
(lp1420
g1
(g101
g3
Ntp1421
Rp1422
(dp1423
g92
g1
(g78
g3
Ntp1424
Rp1425
(dp1426
g82
F3.1789143880206526e-07
sg83
I0
sg84
g85
sg86
g87
(S'\x04c\x00\x005\x00\x00\x00\t\x00\x00\x00\x00\x00\x00\x00\x00\xfc\xff\xff'
p1427
tp1428
Rp1429
sg91
F0.0009765622671693563
sbsg12
I1
sg13
I22
sg15
Nsg77
g1
(g78
g3
Ntp1430
Rp1431
(dp1432
g82
I0
sg83
I0
sg84
g85
sg86
I0
sg91
I0
sbsg114
g115
sg116
I1
sg117
g1
(g118
g3
Ntp1433
Rp1434
(dp1435
g122
g39
(g43
S'\x0c=\x19m;\xcd\xcf?'
p1436
tp1437
Rp1438
sg25
g1
(g26
g3
Ntp1439
Rp1440
(dp1441
g30
I01
sg31
I23
sg32
I-24
sg33
I-2
sbsg129
I4168311
sbsg130
S't4[k+1]'
p1442
sg132
I-9
sg133
g1
(g118
g3
Ntp1443
Rp1444
(dp1445
g122
g1438
sg25
g1
(g26
g3
Ntp1446
Rp1447
(dp1448
g30
I01
sg31
I23
sg32
I-24
sg33
I-2
sbsg129
I4168311
sbsg63
g1
(g21
g3
Ntp1449
Rp1450
(dp1451
g25
g1
(g26
g3
Ntp1452
Rp1453
(dp1454
g30
I01
sg31
I19
sg32
I-9
sg33
I9
sbsg34
I171735
sg35
I-117388
sg36
S'Var214'
p1455
sg38
g1391
sg49
g1394
sbsg36
S'Mult_t4[k+1]'
p1456
sg31
I21
sg148
g1
(g21
g3
Ntp1457
Rp1458
(dp1459
g25
g1
(g26
g3
Ntp1460
Rp1461
(dp1462
g30
I01
sg31
I19
sg32
I-7
sg33
I11
sbsg34
I172806
sg35
I-118120
sg36
g1442
sg38
g39
(g43
S'D\x96\\W\x86\xd6\x8c\xc0'
p1463
tp1464
Rp1465
sg49
g39
(g43
S'\xb4\xdf\xb7\x1e.\x18\x95@'
p1466
tp1467
Rp1468
sbsg161
I0
sbag1
(g101
g3
Ntp1469
Rp1470
(dp1471
g92
g1
(g78
g3
Ntp1472
Rp1473
(dp1474
g82
F3.1789143880092685e-07
sg83
I0
sg84
g85
sg86
g87
(S'\x04c\x00\x005\x00\x00\x00\t\x00\x00\x00\x00\x00\x00\x00\x00\xe0\xff\xff'
p1475
tp1476
Rp1477
sg91
F0.0009765606373548508
sbsg12
I1
sg13
I19
sg15
Nsg77
g1
(g78
g3
Ntp1478
Rp1479
(dp1480
g82
I0
sg83
I0
sg84
g85
sg86
I0
sg91
I0
sbsg114
g115
sg116
I2
sg117
g1
(g118
g3
Ntp1481
Rp1482
(dp1483
g122
g39
(g43
S'\x02\xcb;\x11\xa0\x15\xc8?'
p1484
tp1485
Rp1486
sg25
g1
(g26
g3
Ntp1487
Rp1488
(dp1489
g30
I01
sg31
I20
sg32
I-21
sg33
I-2
sbsg129
I394600
sbsg130
S'x3[k]'
p1490
sg132
I-9
sg133
g1
(g118
g3
Ntp1491
Rp1492
(dp1493
g122
g1486
sg25
g1
(g26
g3
Ntp1494
Rp1495
(dp1496
g30
I01
sg31
I20
sg32
I-21
sg33
I-2
sbsg129
I394600
sbsg63
g1
(g21
g3
Ntp1497
Rp1498
(dp1499
g25
g1
(g26
g3
Ntp1500
Rp1501
(dp1502
g30
I01
sg31
I19
sg32
I-9
sg33
I9
sbsg34
I139331
sg35
I-100817
sg36
S'Var215'
p1503
sg38
g1401
sg49
g1404
sbsg36
S'Mult_x3[k]'
p1504
sg31
I21
sg148
g1
(g21
g3
Ntp1505
Rp1506
(dp1507
g25
g1
(g26
g3
Ntp1508
Rp1509
(dp1510
g30
I01
sg31
I19
sg32
I-7
sg33
I11
sbsg34
I185123
sg35
I-133952
sg36
g1490
sg38
g39
(g43
S'\xe2\xbc\x94\x8b\xfcY\x90\xc0'
p1511
tp1512
Rp1513
sg49
g39
(g43
S'\xe6;^}\x18\x99\x96@'
p1514
tp1515
Rp1516
sbsg161
I0
sbasg210
g1422
sg211
(lp1517
I0
aI0
asbag1
(g8
g3
Ntp1518
Rp1519
(dp1520
g12
Nsg13
(lp1521
I0
aI0
asg15
Nsg16
(lp1522
I0
aI0
asg18
I00
sg19
(lp1523
g1
(g21
g3
Ntp1524
Rp1525
(dp1526
g25
g1
(g26
g3
Ntp1527
Rp1528
(dp1529
g30
I01
sg31
I19
sg32
I-9
sg33
I9
sbsg34
I137542
sg35
I-180570
sg36
S'Var234'
p1530
sg38
g39
(g43
S'\xae\x9c\xd7\x99\xd3\nv\xc0'
p1531
tp1532
Rp1533
sg49
g39
(g43
S'\xd2[_\x03.\xcap@'
p1534
tp1535
Rp1536
sbag1
(g21
g3
Ntp1537
Rp1538
(dp1539
g25
g1528
sg34
I82944
sg35
I-121344
sg36
S'Var235'
p1540
sg38
g39
(g43
S'\x00\x00\x00\x00\x00\xa0m\xc0'
p1541
tp1542
Rp1543
sg49
g39
(g43
S'\x00\x00\x00\x00\x00@d@'
p1544
tp1545
Rp1546
sbasg63
g1
(g21
g3
Ntp1547
Rp1548
(dp1549
g25
g1528
sg34
I220486
sg35
I-301914
sg36
S'Var236'
p1550
sg38
g1347
sg49
g1350
sbsg36
S'Add_40'
p1551
sg75
(lp1552
I0
aI0
asg77
g1
(g78
g3
Ntp1553
Rp1554
(dp1555
g82
F6.357828775289953e-07
sg83
I0
sg84
g85
sg86
g87
(S'\x04c\x00\x005\x00\x00\x00\x08\x00\x00\x00\x00\x00\x00\x00\x00p\xff\xff'
p1556
tp1557
Rp1558
sg91
F0.001953108236193657
sbsg92
g1
(g78
g3
Ntp1559
Rp1560
(dp1561
g82
I0
sg83
I0
sg84
g85
sg86
I0
sg91
I0
sbsg99
(lp1562
g1
(g101
g3
Ntp1563
Rp1564
(dp1565
g92
g1
(g78
g3
Ntp1566
Rp1567
(dp1568
g82
F3.1789143880092685e-07
sg83
I0
sg84
g85
sg86
g87
(S'\x04c\x00\x005\x00\x00\x00\t\x00\x00\x00\x00\x00\x00\x00\x00\xe0\xff\xff'
p1569
tp1570
Rp1571
sg91
F0.0009765606373548508
sbsg12
I1
sg13
I19
sg15
Nsg77
g1
(g78
g3
Ntp1572
Rp1573
(dp1574
g82
I0
sg83
I0
sg84
g85
sg86
I0
sg91
I0
sbsg114
g115
sg116
I0
sg117
g1
(g118
g3
Ntp1575
Rp1576
(dp1577
g122
g39
(g43
S' X\x86\xbf\x1b\xd2\xcb\xbf'
p1578
tp1579
Rp1580
sg25
g1
(g26
g3
Ntp1581
Rp1582
(dp1583
g30
I01
sg31
I20
sg32
I-21
sg33
I-2
sbsg129
I-455815
sbsg130
S't1[k+1]'
p1584
sg132
I-9
sg133
g1
(g118
g3
Ntp1585
Rp1586
(dp1587
g122
g1580
sg25
g1
(g26
g3
Ntp1588
Rp1589
(dp1590
g30
I01
sg31
I20
sg32
I-21
sg33
I-2
sbsg129
I-455815
sbsg63
g1
(g21
g3
Ntp1591
Rp1592
(dp1593
g25
g1
(g26
g3
Ntp1594
Rp1595
(dp1596
g30
I01
sg31
I19
sg32
I-9
sg33
I9
sbsg34
I137542
sg35
I-180570
sg36
S'Var213'
p1597
sg38
g1533
sg49
g1536
sbsg36
S'Mult_t1[k+1]'
p1598
sg31
I21
sg148
g1
(g21
g3
Ntp1599
Rp1600
(dp1601
g25
g1
(g26
g3
Ntp1602
Rp1603
(dp1604
g30
I01
sg31
I19
sg32
I-7
sg33
I11
sbsg34
I207696
sg35
I-158203
sg36
g1584
sg38
g39
(g43
S'S\x17\xee\x7f\xdbO\x93\xc0'
p1605
tp1606
Rp1607
sg49
g39
(g43
S'\xf9$\x95\xaa\x7fZ\x99@'
p1608
tp1609
Rp1610
sbsg161
I0
sbag1
(g101
g3
Ntp1611
Rp1612
(dp1613
g92
g1
(g78
g3
Ntp1614
Rp1615
(dp1616
g82
F3.1789143872806847e-07
sg83
I0
sg84
g85
sg86
g87
(S'\x04c\x00\x005\x00\x00\x00\t\x00\x00\x00\x00\x00\x00\x00\x00\x00\xff\xff'
p1617
tp1618
Rp1619
sg91
F0.0009765475988388062
sbsg12
I1
sg13
I16
sg15
Nsg77
g1
(g78
g3
Ntp1620
Rp1621
(dp1622
g82
I0
sg83
I0
sg84
g85
sg86
I0
sg91
I0
sbsg114
g115
sg116
I3
sg117
g1
(g118
g3
Ntp1623
Rp1624
(dp1625
g122
g39
(g43
S'\x00\x00\x00\x00\x00\x00\xf0?'
p1626
tp1627
Rp1628
sg25
g1
(g26
g3
Ntp1629
Rp1630
(dp1631
g30
I01
sg31
I17
sg32
I-15
sg33
I1
sbsg129
I32768
sbsg130
S'u1[k]'
p1632
sg132
I-9
sg133
g1
(g118
g3
Ntp1633
Rp1634
(dp1635
g122
g1628
sg25
g1
(g26
g3
Ntp1636
Rp1637
(dp1638
g30
I01
sg31
I17
sg32
I-15
sg33
I1
sbsg129
I32768
sbsg63
g1
(g21
g3
Ntp1639
Rp1640
(dp1641
g25
g1
(g26
g3
Ntp1642
Rp1643
(dp1644
g30
I01
sg31
I18
sg32
I-9
sg33
I8
sbsg34
I82944
sg35
I-121344
sg36
S'Var216'
p1645
sg38
g1543
sg49
g1546
sbsg36
S'Mult_u1[k]'
p1646
sg31
I21
sg148
g1
(g21
g3
Ntp1647
Rp1648
(dp1649
g25
g1
(g26
g3
Ntp1650
Rp1651
(dp1652
g30
I01
sg31
I19
sg32
I-10
sg33
I8
sbsg34
I165888
sg35
I-242688
sg36
g1632
sg38
g39
(g43
S'\x00\x00\x00\x00\x00\xa0m\xc0'
p1653
tp1654
Rp1655
sg49
g39
(g43
S'\x00\x00\x00\x00\x00@d@'
p1656
tp1657
Rp1658
sbsg161
I0
sbasg210
g1564
sg211
(lp1659
I0
aI0
asbasg210
g1422
sg211
(lp1660
I0
aI0
asbsg213
g1
(g21
g3
Ntp1661
Rp1662
(dp1663
g25
g1
(g26
g3
Ntp1664
Rp1665
(dp1666
g30
I01
sg31
I19
sg32
I-7
sg33
I11
sbsg34
I132888
sg35
I-130030
sg36
S'Var212'
p1667
sg38
g1357
sg49
g1360
sbsg221
I2
sbag1
(g2
g3
Ntp1668
Rp1669
(dp1670
g7
g1
(g8
g3
Ntp1671
Rp1672
(dp1673
g12
Nsg13
(lp1674
I0
aI0
asg15
Nsg16
(lp1675
I0
aI0
asg18
I01
sg19
(lp1676
g1
(g21
g3
Ntp1677
Rp1678
(dp1679
g25
g1
(g26
g3
Ntp1680
Rp1681
(dp1682
g30
I01
sg31
I19
sg32
I-9
sg33
I9
sbsg34
I182933
sg35
I-143019
sg36
S'Var399'
p1683
sg38
g39
(g43
S'Z\x06\xbf\xac[uq\xc0'
p1684
tp1685
Rp1686
sg49
g39
(g43
S'\r\x8e\x186\xacTv@'
p1687
tp1688
Rp1689
sbag1
(g21
g3
Ntp1690
Rp1691
(dp1692
g25
g1681
sg34
I296826
sg35
I-284260
sg36
S'Var400'
p1693
sg38
g39
(g43
S"\xeb\xba\x1c'\x8eY\x81\xc0"
p1694
tp1695
Rp1696
sg49
g39
(g43
S'\xae\x08\n\xca\xe8\x1d\x82@'
p1697
tp1698
Rp1699
sbasg63
g1
(g21
g3
Ntp1700
Rp1701
(dp1702
g25
g1681
sg34
I479759
sg35
I-427279
sg36
S'Var401'
p1703
sg38
g39
(g43
S'\x18>|\xfd;\x14\x8a\xc0'
p1704
tp1705
Rp1706
sg49
g39
(g43
S'\xb4O\x16\xe5>H\x8d@'
p1707
tp1708
Rp1709
sbsg36
S'Add_72'
p1710
sg75
(lp1711
I0
aI0
asg77
g1
(g78
g3
Ntp1712
Rp1713
(dp1714
g82
F6.039937336941206e-06
sg83
I0
sg84
g85
sg86
g87
(S'\x04c\x00\x005\x00\x00\x00\x06\x00\x00\x00\x00\x00\x00\x00\xc0\xb7\xff\xdf'
p1715
tp1716
Rp1717
sg91
F0.006835903855971992
sbsg92
g1
(g78
g3
Ntp1718
Rp1719
(dp1720
g82
F4.76837158203125e-06
sg83
I0
sg84
g85
sg86
g87
(S'\x04c\x00\x005\x00\x00\x00\x07\x00\x00\x00\x00\x00\x00\x00\x00\x00\x00\xc0'
p1721
tp1722
Rp1723
sg91
F0.0029296875
sbsg99
(lp1724
g1
(g8
g3
Ntp1725
Rp1726
(dp1727
g12
Nsg13
(lp1728
I0
aI0
asg15
Nsg16
(lp1729
I0
aI0
asg18
I00
sg19
(lp1730
g1
(g21
g3
Ntp1731
Rp1732
(dp1733
g25
g1
(g26
g3
Ntp1734
Rp1735
(dp1736
g30
I01
sg31
I19
sg32
I-9
sg33
I9
sbsg34
I25081
sg35
I-35120
sg36
S'Var394'
p1737
sg38
g39
(g43
S'\x08\xe4\x07%\n&Q\xc0'
p1738
tp1739
Rp1740
sg49
g39
(g43
S'2\xe7\xf9\xf4D~H@'
p1741
tp1742
Rp1743
sbag1
(g21
g3
Ntp1744
Rp1745
(dp1746
g25
g1735
sg34
I157852
sg35
I-107899
sg36
S'Var395'
p1747
sg38
g39
(g43
S'\xb1\x1a\xfaF\xb2Wj\xc0'
p1748
tp1749
Rp1750
sg49
g39
(g43
S"'Qy\x97\xe3Ds@"
p1751
tp1752
Rp1753
sbasg63
g1
(g21
g3
Ntp1754
Rp1755
(dp1756
g25
g1735
sg34
I182933
sg35
I-143019
sg36
S'Var396'
p1757
sg38
g1686
sg49
g1689
sbsg36
S'Add_71'
p1758
sg75
(lp1759
I0
aI0
asg77
g1
(g78
g3
Ntp1760
Rp1761
(dp1762
g82
F6.357828776030057e-07
sg83
I0
sg84
g85
sg86
g87
(S'\x04c\x00\x005\x00\x00\x00\x08\x00\x00\x00\x00\x00\x00\x00\x00\xef\xff\xff'
p1763
tp1764
Rp1765
sg91
F0.001953123020939529
sbsg92
g1
(g78
g3
Ntp1766
Rp1767
(dp1768
g82
I0
sg83
I0
sg84
g85
sg86
I0
sg91
I0
sbsg99
(lp1769
g1
(g101
g3
Ntp1770
Rp1771
(dp1772
g92
g1
(g78
g3
Ntp1773
Rp1774
(dp1775
g82
F3.178914388020788e-07
sg83
I0
sg84
g85
sg86
g87
(S'\x04c\x00\x005\x00\x00\x00\t\x00\x00\x00\x00\x00\x00\x00\x00\xfe\xff\xff'
p1776
tp1777
Rp1778
sg91
F0.0009765623835846782
sbsg12
I1
sg13
I23
sg15
Nsg77
g1
(g78
g3
Ntp1779
Rp1780
(dp1781
g82
I0
sg83
I0
sg84
g85
sg86
I0
sg91
I0
sbsg114
g115
sg116
I1
sg117
g1
(g118
g3
Ntp1782
Rp1783
(dp1784
g122
g39
(g43
S'\x00\xba+\xf5\x18\xda\xb1\xbf'
p1785
tp1786
Rp1787
sg25
g1
(g26
g3
Ntp1788
Rp1789
(dp1790
g30
I01
sg31
I22
sg32
I-24
sg33
I-3
sbsg129
I-1169945
sbsg130
S't5[k+1]'
p1791
sg132
I-9
sg133
g1
(g118
g3
Ntp1792
Rp1793
(dp1794
g122
g1787
sg25
g1
(g26
g3
Ntp1795
Rp1796
(dp1797
g30
I01
sg31
I22
sg32
I-24
sg33
I-3
sbsg129
I-1169945
sbsg63
g1
(g21
g3
Ntp1798
Rp1799
(dp1800
g25
g1
(g26
g3
Ntp1801
Rp1802
(dp1803
g30
I01
sg31
I17
sg32
I-9
sg33
I7
sbsg34
I25081
sg35
I-35120
sg36
S'Var309'
p1804
sg38
g1740
sg49
g1743
sbsg36
S'Mult_t5[k+1]'
p1805
sg31
I21
sg148
g1
(g21
g3
Ntp1806
Rp1807
(dp1808
g25
g1
(g26
g3
Ntp1809
Rp1810
(dp1811
g30
I01
sg31
I19
sg32
I-8
sg33
I10
sbsg34
I251816
sg35
I-179834
sg36
g1791
sg38
g39
(g43
S'\xf0;=5\xcc\xf3\x85\xc0'
p1812
tp1813
Rp1814
sg49
g39
(g43
S'\x88\x1fX\t>\xbd\x8e@'
p1815
tp1816
Rp1817
sbsg161
I0
sbag1
(g101
g3
Ntp1818
Rp1819
(dp1820
g92
g1
(g78
g3
Ntp1821
Rp1822
(dp1823
g82
F3.1789143880092685e-07
sg83
I0
sg84
g85
sg86
g87
(S'\x04c\x00\x005\x00\x00\x00\t\x00\x00\x00\x00\x00\x00\x00\x00\xe0\xff\xff'
p1824
tp1825
Rp1826
sg91
F0.0009765606373548508
sbsg12
I1
sg13
I19
sg15
Nsg77
g1
(g78
g3
Ntp1827
Rp1828
(dp1829
g82
I0
sg83
I0
sg84
g85
sg86
I0
sg91
I0
sbsg114
g115
sg116
I2
sg117
g1
(g118
g3
Ntp1830
Rp1831
(dp1832
g122
g39
(g43
S'\x12\xb1\x913\xf4\xd3\xc9?'
p1833
tp1834
Rp1835
sg25
g1
(g26
g3
Ntp1836
Rp1837
(dp1838
g30
I01
sg31
I20
sg32
I-21
sg33
I-2
sbsg129
I423165
sbsg130
S'x4[k]'
p1839
sg132
I-9
sg133
g1
(g118
g3
Ntp1840
Rp1841
(dp1842
g122
g1835
sg25
g1
(g26
g3
Ntp1843
Rp1844
(dp1845
g30
I01
sg31
I20
sg32
I-21
sg33
I-2
sbsg129
I423165
sbsg63
g1
(g21
g3
Ntp1846
Rp1847
(dp1848
g25
g1
(g26
g3
Ntp1849
Rp1850
(dp1851
g30
I01
sg31
I19
sg32
I-9
sg33
I9
sbsg34
I157852
sg35
I-107899
sg36
S'Var310'
p1852
sg38
g1750
sg49
g1753
sbsg36
S'Mult_x4[k]'
p1853
sg31
I21
sg148
g1
(g21
g3
Ntp1854
Rp1855
(dp1856
g25
g1
(g26
g3
Ntp1857
Rp1858
(dp1859
g30
I01
sg31
I19
sg32
I-7
sg33
I11
sbsg34
I195574
sg35
I-133684
sg36
g1839
sg38
g39
(g43
S'\x98\xf0\x1e\xc4\x9cQ\x90\xc0'
p1860
tp1861
Rp1862
sg49
g39
(g43
S'vi\xe11\xb1\xdf\x97@'
p1863
tp1864
Rp1865
sbsg161
I0
sbasg210
g1771
sg211
(lp1866
I0
aI0
asbag1
(g8
g3
Ntp1867
Rp1868
(dp1869
g12
Nsg13
(lp1870
I0
aI0
asg15
Nsg16
(lp1871
I0
aI0
asg18
I00
sg19
(lp1872
g1
(g21
g3
Ntp1873
Rp1874
(dp1875
g25
g1
(g26
g3
Ntp1876
Rp1877
(dp1878
g30
I01
sg31
I19
sg32
I-9
sg33
I9
sbsg34
I213882
sg35
I-162916
sg36
S'Var329'
p1879
sg38
g39
(g43
S'\xd6u9N\x1c\xe3s\xc0'
p1880
tp1881
Rp1882
sg49
g39
(g43
S'[\x11\x14\x94\xd1\x1bz@'
p1883
tp1884
Rp1885
sbag1
(g21
g3
Ntp1886
Rp1887
(dp1888
g25
g1877
sg34
I82944
sg35
I-121344
sg36
S'Var330'
p1889
sg38
g39
(g43
S'\x00\x00\x00\x00\x00\xa0m\xc0'
p1890
tp1891
Rp1892
sg49
g39
(g43
S'\x00\x00\x00\x00\x00@d@'
p1893
tp1894
Rp1895
sbasg63
g1
(g21
g3
Ntp1896
Rp1897
(dp1898
g25
g1877
sg34
I296826
sg35
I-284260
sg36
S'Var331'
p1899
sg38
g1696
sg49
g1699
sbsg36
S'Add_58'
p1900
sg75
(lp1901
I0
aI0
asg77
g1
(g78
g3
Ntp1902
Rp1903
(dp1904
g82
F6.357828773069507e-07
sg83
I0
sg84
g85
sg86
g87
(S'\x04c\x00\x005\x00\x00\x00\x08\x00\x00\x00\x00\x00\x00\x00\x00\xf0\xfe\xff'
p1905
tp1906
Rp1907
sg91
F0.001953093335032463
sbsg92
g1
(g78
g3
Ntp1908
Rp1909
(dp1910
g82
I0
sg83
I0
sg84
g85
sg86
I0
sg91
I0
sbsg99
(lp1911
g1
(g101
g3
Ntp1912
Rp1913
(dp1914
g92
g1
(g78
g3
Ntp1915
Rp1916
(dp1917
g82
F3.1789143880092685e-07
sg83
I0
sg84
g85
sg86
g87
(S'\x04c\x00\x005\x00\x00\x00\t\x00\x00\x00\x00\x00\x00\x00\x00\xe0\xff\xff'
p1918
tp1919
Rp1920
sg91
F0.0009765606373548508
sbsg12
I1
sg13
I19
sg15
Nsg77
g1
(g78
g3
Ntp1921
Rp1922
(dp1923
g82
I0
sg83
I0
sg84
g85
sg86
I0
sg91
I0
sbsg114
g115
sg116
I0
sg117
g1
(g118
g3
Ntp1924
Rp1925
(dp1926
g122
g39
(g43
S'\x10uN\xe9\xffy\xd0?'
p1927
tp1928
Rp1929
sg25
g1
(g26
g3
Ntp1930
Rp1931
(dp1932
g30
I01
sg31
I21
sg32
I-21
sg33
I-1
sbsg129
I539904
sbsg130
S't1[k+1]'
p1933
sg132
I-9
sg133
g1
(g118
g3
Ntp1934
Rp1935
(dp1936
g122
g1929
sg25
g1
(g26
g3
Ntp1937
Rp1938
(dp1939
g30
I01
sg31
I21
sg32
I-21
sg33
I-1
sbsg129
I539904
sbsg63
g1
(g21
g3
Ntp1940
Rp1941
(dp1942
g25
g1
(g26
g3
Ntp1943
Rp1944
(dp1945
g30
I01
sg31
I19
sg32
I-9
sg33
I9
sbsg34
I213882
sg35
I-162916
sg36
S'Var308'
p1946
sg38
g1882
sg49
g1885
sbsg36
S'Mult_t1[k+1]'
p1947
sg31
I21
sg148
g1
(g21
g3
Ntp1948
Rp1949
(dp1950
g25
g1
(g26
g3
Ntp1951
Rp1952
(dp1953
g30
I01
sg31
I19
sg32
I-7
sg33
I11
sbsg34
I207696
sg35
I-158203
sg36
g1933
sg38
g39
(g43
S'S\x17\xee\x7f\xdbO\x93\xc0'
p1954
tp1955
Rp1956
sg49
g39
(g43
S'\xf9$\x95\xaa\x7fZ\x99@'
p1957
tp1958
Rp1959
sbsg161
I0
sbag1
(g101
g3
Ntp1960
Rp1961
(dp1962
g92
g1
(g78
g3
Ntp1963
Rp1964
(dp1965
g82
F3.1789143850602386e-07
sg83
I0
sg84
g85
sg86
g87
(S'\x04c\x00\x005\x00\x00\x00\t\x00\x00\x00\x00\x00\x00\x00\x00\x00\xfe\xff'
p1966
tp1967
Rp1968
sg91
F0.0009765326976776123
sbsg12
I1
sg13
I15
sg15
Nsg77
g1
(g78
g3
Ntp1969
Rp1970
(dp1971
g82
I0
sg83
I0
sg84
g85
sg86
I0
sg91
I0
sbsg114
g115
sg116
I3
sg117
g1
(g118
g3
Ntp1972
Rp1973
(dp1974
g122
g39
(g43
S'\x00\x00\x00\x00\x00\x00\xf0?'
p1975
tp1976
Rp1977
sg25
g1
(g26
g3
Ntp1978
Rp1979
(dp1980
g30
I01
sg31
I16
sg32
I-14
sg33
I1
sbsg129
I16384
sbsg130
S'u1[k]'
p1981
sg132
I-9
sg133
g1
(g118
g3
Ntp1982
Rp1983
(dp1984
g122
g1977
sg25
g1
(g26
g3
Ntp1985
Rp1986
(dp1987
g30
I01
sg31
I16
sg32
I-14
sg33
I1
sbsg129
I16384
sbsg63
g1
(g21
g3
Ntp1988
Rp1989
(dp1990
g25
g1
(g26
g3
Ntp1991
Rp1992
(dp1993
g30
I01
sg31
I18
sg32
I-9
sg33
I8
sbsg34
I82944
sg35
I-121344
sg36
S'Var311'
p1994
sg38
g1892
sg49
g1895
sbsg36
S'Mult_u1[k]'
p1995
sg31
I21
sg148
g1
(g21
g3
Ntp1996
Rp1997
(dp1998
g25
g1
(g26
g3
Ntp1999
Rp2000
(dp2001
g30
I01
sg31
I19
sg32
I-10
sg33
I8
sbsg34
I165888
sg35
I-242688
sg36
g1981
sg38
g39
(g43
S'\x00\x00\x00\x00\x00\xa0m\xc0'
p2002
tp2003
Rp2004
sg49
g39
(g43
S'\x00\x00\x00\x00\x00@d@'
p2005
tp2006
Rp2007
sbsg161
I0
sbasg210
g1913
sg211
(lp2008
I0
aI0
asbasg210
g1771
sg211
(lp2009
I0
aI0
asbsg213
g1
(g21
g3
Ntp2010
Rp2011
(dp2012
g25
g1
(g26
g3
Ntp2013
Rp2014
(dp2015
g30
I01
sg31
I19
sg32
I-7
sg33
I11
sbsg34
I119939
sg35
I-106820
sg36
S'Var307'
p2016
sg38
g1706
sg49
g1709
sbsg221
I2
sbag1
(g2
g3
Ntp2017
Rp2018
(dp2019
g7
g1
(g8
g3
Ntp2020
Rp2021
(dp2022
g12
Nsg13
(lp2023
I0
aI0
asg15
Nsg16
(lp2024
I0
aI0
asg18
I01
sg19
(lp2025
g1
(g21
g3
Ntp2026
Rp2027
(dp2028
g25
g1
(g26
g3
Ntp2029
Rp2030
(dp2031
g30
I01
sg31
I19
sg32
I-9
sg33
I9
sbsg34
I357737
sg35
I-248877
sg36
S'Var494'
p2032
sg38
g39
(g43
S'\xbc\x1a\xfc\xdafa~\xc0'
p2033
tp2034
Rp2035
sg49
g39
(g43
S'\xc0\x1b\xec\xc2\xa5\xd5\x85@'
p2036
tp2037
Rp2038
sbag1
(g21
g3
Ntp2039
Rp2040
(dp2041
g25
g2030
sg34
I187317
sg35
I-200845
sg36
S'Var495'
p2042
sg38
g39
(g43
S'R\xe5@\xcfk\x84x\xc0'
p2043
tp2044
Rp2045
sg49
g39
(g43
S'6\x06\x88`\xa6\xddv@'
p2046
tp2047
Rp2048
sbasg63
g1
(g21
g3
Ntp2049
Rp2050
(dp2051
g25
g2030
sg34
I545054
sg35
I-449722
sg36
S'Var496'
p2052
sg38
g39
(g43
S'\x07\x80\x1eU\xe9r\x8b\xc0'
p2053
tp2054
Rp2055
sg49
g39
(g43
S'n\x0f\x98y<\xa2\x90@'
p2056
tp2057
Rp2058
sbsg36
S'Add_90'
p2059
sg75
(lp2060
I0
aI0
asg77
g1
(g78
g3
Ntp2061
Rp2062
(dp2063
g82
F6.039937337218694e-06
sg83
I0
sg84
g85
sg86
g87
(S'\x04c\x00\x005\x00\x00\x00\x06\x00\x00\x00\x00\x00\x00\x00\x00\xe7\xff\xdf'
p2064
tp2065
Rp2066
sg91
F0.006835925858467817
sbsg92
g1
(g78
g3
Ntp2067
Rp2068
(dp2069
g82
F4.76837158203125e-06
sg83
I0
sg84
g85
sg86
g87
(S'\x04c\x00\x005\x00\x00\x00\x07\x00\x00\x00\x00\x00\x00\x00\x00\x00\x00\xc0'
p2070
tp2071
Rp2072
sg91
F0.0029296875
sbsg99
(lp2073
g1
(g8
g3
Ntp2074
Rp2075
(dp2076
g12
Nsg13
(lp2077
I0
aI0
asg15
Nsg16
(lp2078
I0
aI0
asg18
I00
sg19
(lp2079
g1
(g21
g3
Ntp2080
Rp2081
(dp2082
g25
g1
(g26
g3
Ntp2083
Rp2084
(dp2085
g30
I01
sg31
I19
sg32
I-9
sg33
I9
sbsg34
I215677
sg35
I-147425
sg36
S'Var489'
p2086
sg38
g39
(g43
S'\x01\xdc:#\x06\xffq\xc0'
p2087
tp2088
Rp2089
sg49
g39
(g43
S'\xcbg>\xcb\xe7Sz@'
p2090
tp2091
Rp2092
sbag1
(g21
g3
Ntp2093
Rp2094
(dp2095
g25
g2084
sg34
I142060
sg35
I-101452
sg36
S'Var490'
p2096
sg38
g39
(g43
S'u}\x82o\xc1\xc4h\xc0'
p2097
tp2098
Rp2099
sg49
g39
(g43
S'\xb4\xcf\x99\xbacWq@'
p2100
tp2101
Rp2102
sbasg63
g1
(g21
g3
Ntp2103
Rp2104
(dp2105
g25
g2084
sg34
I357737
sg35
I-248877
sg36
S'Var491'
p2106
sg38
g2035
sg49
g2038
sbsg36
S'Add_89'
p2107
sg75
(lp2108
I0
aI0
asg77
g1
(g78
g3
Ntp2109
Rp2110
(dp2111
g82
F6.357828776029379e-07
sg83
I0
sg84
g85
sg86
g87
(S'\x04c\x00\x005\x00\x00\x00\x08\x00\x00\x00\x00\x00\x00\x00\x00\xec\xff\xff'
p2112
tp2113
Rp2114
sg91
F0.0019531226716935635
sbsg92
g1
(g78
g3
Ntp2115
Rp2116
(dp2117
g82
I0
sg83
I0
sg84
g85
sg86
I0
sg91
I0
sbsg99
(lp2118
g1
(g101
g3
Ntp2119
Rp2120
(dp2121
g92
g1
(g78
g3
Ntp2122
Rp2123
(dp2124
g82
F3.1789143880201105e-07
sg83
I0
sg84
g85
sg86
g87
(S'\x04c\x00\x005\x00\x00\x00\t\x00\x00\x00\x00\x00\x00\x00\x00\xf8\xff\xff'
p2125
tp2126
Rp2127
sg91
F0.0009765620343387127
sbsg12
I1
sg13
I21
sg15
Nsg77
g1
(g78
g3
Ntp2128
Rp2129
(dp2130
g82
I0
sg83
I0
sg84
g85
sg86
I0
sg91
I0
sbsg114
g115
sg116
I1
sg117
g1
(g118
g3
Ntp2131
Rp2132
(dp2133
g122
g39
(g43
S'\x80M\xe1}\xba\xc3\xdc?'
p2134
tp2135
Rp2136
sg25
g1
(g26
g3
Ntp2137
Rp2138
(dp2139
g30
I01
sg31
I22
sg32
I-22
sg33
I-1
sbsg129
I1885114
sbsg130
S't6[k+1]'
p2140
sg132
I-9
sg133
g1
(g118
g3
Ntp2141
Rp2142
(dp2143
g122
g2136
sg25
g1
(g26
g3
Ntp2144
Rp2145
(dp2146
g30
I01
sg31
I22
sg32
I-22
sg33
I-1
sbsg129
I1885114
sbsg63
g1
(g21
g3
Ntp2147
Rp2148
(dp2149
g25
g1
(g26
g3
Ntp2150
Rp2151
(dp2152
g30
I01
sg31
I19
sg32
I-9
sg33
I9
sbsg34
I215677
sg35
I-147425
sg36
S'Var404'
p2153
sg38
g2089
sg49
g2092
sbsg36
S'Mult_t6[k+1]'
p2154
sg31
I21
sg148
g1
(g21
g3
Ntp2155
Rp2156
(dp2157
g25
g1
(g26
g3
Ntp2158
Rp2159
(dp2160
g30
I01
sg31
I19
sg32
I-8
sg33
I10
sbsg34
I239936
sg35
I-164007
sg36
g2140
sg38
g39
(g43
S'\xf72\xe3\xbb8\x05\x84\xc0'
p2161
tp2162
Rp2163
sg49
g39
(g43
S'!\xae4h\x02J\x8d@'
p2164
tp2165
Rp2166
sbsg161
I0
sbag1
(g101
g3
Ntp2167
Rp2168
(dp2169
g92
g1
(g78
g3
Ntp2170
Rp2171
(dp2172
g82
F3.1789143880092685e-07
sg83
I0
sg84
g85
sg86
g87
(S'\x04c\x00\x005\x00\x00\x00\t\x00\x00\x00\x00\x00\x00\x00\x00\xe0\xff\xff'
p2173
tp2174
Rp2175
sg91
F0.0009765606373548508
sbsg12
I1
sg13
I19
sg15
Nsg77
g1
(g78
g3
Ntp2176
Rp2177
(dp2178
g82
I0
sg83
I0
sg84
g85
sg86
I0
sg91
I0
sbsg114
g115
sg116
I2
sg117
g1
(g118
g3
Ntp2179
Rp2180
(dp2181
g122
g39
(g43
S'\xa2\x8f\xa3\x08\xa3\xfa\xc9?'
p2182
tp2183
Rp2184
sg25
g1
(g26
g3
Ntp2185
Rp2186
(dp2187
g30
I01
sg31
I20
sg32
I-21
sg33
I-2
sbsg129
I425641
sbsg130
S'x5[k]'
p2188
sg132
I-9
sg133
g1
(g118
g3
Ntp2189
Rp2190
(dp2191
g122
g2184
sg25
g1
(g26
g3
Ntp2192
Rp2193
(dp2194
g30
I01
sg31
I20
sg32
I-21
sg33
I-2
sbsg129
I425641
sbsg63
g1
(g21
g3
Ntp2195
Rp2196
(dp2197
g25
g1
(g26
g3
Ntp2198
Rp2199
(dp2200
g30
I01
sg31
I19
sg32
I-9
sg33
I9
sbsg34
I142060
sg35
I-101452
sg36
S'Var405'
p2201
sg38
g2099
sg49
g2102
sbsg36
S'Mult_x5[k]'
p2202
sg31
I21
sg148
g1
(g21
g3
Ntp2203
Rp2204
(dp2205
g25
g1
(g26
g3
Ntp2206
Rp2207
(dp2208
g30
I01
sg31
I19
sg32
I-7
sg33
I11
sbsg34
I174985
sg35
I-124965
sg36
g2188
sg38
g39
(g43
S'Y\xfb\x1b\xd6L\x82\x8e\xc0'
p2209
tp2210
Rp2211
sg49
g39
(g43
S'\x9e\x97\x10,E\\\x95@'
p2212
tp2213
Rp2214
sbsg161
I0
sbasg210
g2120
sg211
(lp2215
I0
aI0
asbag1
(g8
g3
Ntp2216
Rp2217
(dp2218
g12
Nsg13
(lp2219
I0
aI0
asg15
Nsg16
(lp2220
I0
aI0
asg18
I00
sg19
(lp2221
g1
(g21
g3
Ntp2222
Rp2223
(dp2224
g25
g1
(g26
g3
Ntp2225
Rp2226
(dp2227
g30
I01
sg31
I18
sg32
I-9
sg33
I8
sbsg34
I104373
sg35
I-79501
sg36
S'Var424'
p2228
sg38
g39
(g43
S'\xa3\xca\x81\x9e\xd7hc\xc0'
p2229
tp2230
Rp2231
sg49
g39
(g43
S'k\x0c\x10\xc1L{i@'
p2232
tp2233
Rp2234
sbag1
(g21
g3
Ntp2235
Rp2236
(dp2237
g25
g2226
sg34
I82944
sg35
I-121344
sg36
S'Var425'
p2238
sg38
g39
(g43
S'\x00\x00\x00\x00\x00\xa0m\xc0'
p2239
tp2240
Rp2241
sg49
g39
(g43
S'\x00\x00\x00\x00\x00@d@'
p2242
tp2243
Rp2244
sbasg63
g1
(g21
g3
Ntp2245
Rp2246
(dp2247
g25
g2226
sg34
I187317
sg35
I-200845
sg36
S'Var426'
p2248
sg38
g2045
sg49
g2048
sbsg36
S'Add_76'
p2249
sg75
(lp2250
I0
aI0
asg77
g1
(g78
g3
Ntp2251
Rp2252
(dp2253
g82
F6.357828775845065e-07
sg83
I0
sg84
g85
sg86
g87
(S'\x04c\x00\x005\x00\x00\x00\x08\x00\x00\x00\x00\x00\x00\x00\x00\xb0\xff\xff'
p2254
tp2255
Rp2256
sg91
F0.0019531156867742538
sbsg92
g1
(g78
g3
Ntp2257
Rp2258
(dp2259
g82
I0
sg83
I0
sg84
g85
sg86
I0
sg91
I0
sbsg99
(lp2260
g1
(g101
g3
Ntp2261
Rp2262
(dp2263
g92
g1
(g78
g3
Ntp2264
Rp2265
(dp2266
g82
F3.1789143880092685e-07
sg83
I0
sg84
g85
sg86
g87
(S'\x04c\x00\x005\x00\x00\x00\t\x00\x00\x00\x00\x00\x00\x00\x00\xe0\xff\xff'
p2267
tp2268
Rp2269
sg91
F0.0009765606373548508
sbsg12
I1
sg13
I19
sg15
Nsg77
g1
(g78
g3
Ntp2270
Rp2271
(dp2272
g82
I0
sg83
I0
sg84
g85
sg86
I0
sg91
I0
sbsg114
g115
sg116
I0
sg117
g1
(g118
g3
Ntp2273
Rp2274
(dp2275
g122
g39
(g43
S'\xa0\x1f\x074\xb3\x14\xc0?'
p2276
tp2277
Rp2278
sg25
g1
(g26
g3
Ntp2279
Rp2280
(dp2281
g30
I01
sg31
I20
sg32
I-21
sg33
I-2
sbsg129
I263469
sbsg130
S't1[k+1]'
p2282
sg132
I-9
sg133
g1
(g118
g3
Ntp2283
Rp2284
(dp2285
g122
g2278
sg25
g1
(g26
g3
Ntp2286
Rp2287
(dp2288
g30
I01
sg31
I20
sg32
I-21
sg33
I-2
sbsg129
I263469
sbsg63
g1
(g21
g3
Ntp2289
Rp2290
(dp2291
g25
g1
(g26
g3
Ntp2292
Rp2293
(dp2294
g30
I01
sg31
I18
sg32
I-9
sg33
I8
sbsg34
I104373
sg35
I-79501
sg36
S'Var403'
p2295
sg38
g2231
sg49
g2234
sbsg36
S'Mult_t1[k+1]'
p2296
sg31
I21
sg148
g1
(g21
g3
Ntp2297
Rp2298
(dp2299
g25
g1
(g26
g3
Ntp2300
Rp2301
(dp2302
g30
I01
sg31
I19
sg32
I-7
sg33
I11
sbsg34
I207696
sg35
I-158203
sg36
g2282
sg38
g39
(g43
S'S\x17\xee\x7f\xdbO\x93\xc0'
p2303
tp2304
Rp2305
sg49
g39
(g43
S'\xf9$\x95\xaa\x7fZ\x99@'
p2306
tp2307
Rp2308
sbsg161
I0
sbag1
(g101
g3
Ntp2309
Rp2310
(dp2311
g92
g1
(g78
g3
Ntp2312
Rp2313
(dp2314
g82
F3.178914387835796e-07
sg83
I0
sg84
g85
sg86
g87
(S'\x04c\x00\x005\x00\x00\x00\t\x00\x00\x00\x00\x00\x00\x00\x00\x80\xff\xff'
p2315
tp2316
Rp2317
sg91
F0.0009765550494194031
sbsg12
I1
sg13
I17
sg15
Nsg77
g1
(g78
g3
Ntp2318
Rp2319
(dp2320
g82
I0
sg83
I0
sg84
g85
sg86
I0
sg91
I0
sbsg114
g115
sg116
I3
sg117
g1
(g118
g3
Ntp2321
Rp2322
(dp2323
g122
g39
(g43
S'\x00\x00\x00\x00\x00\x00\xf0?'
p2324
tp2325
Rp2326
sg25
g1
(g26
g3
Ntp2327
Rp2328
(dp2329
g30
I01
sg31
I18
sg32
I-16
sg33
I1
sbsg129
I65536
sbsg130
S'u1[k]'
p2330
sg132
I-9
sg133
g1
(g118
g3
Ntp2331
Rp2332
(dp2333
g122
g2326
sg25
g1
(g26
g3
Ntp2334
Rp2335
(dp2336
g30
I01
sg31
I18
sg32
I-16
sg33
I1
sbsg129
I65536
sbsg63
g1
(g21
g3
Ntp2337
Rp2338
(dp2339
g25
g1
(g26
g3
Ntp2340
Rp2341
(dp2342
g30
I01
sg31
I18
sg32
I-9
sg33
I8
sbsg34
I82944
sg35
I-121344
sg36
S'Var406'
p2343
sg38
g2241
sg49
g2244
sbsg36
S'Mult_u1[k]'
p2344
sg31
I21
sg148
g1
(g21
g3
Ntp2345
Rp2346
(dp2347
g25
g1
(g26
g3
Ntp2348
Rp2349
(dp2350
g30
I01
sg31
I19
sg32
I-10
sg33
I8
sbsg34
I165888
sg35
I-242688
sg36
g2330
sg38
g39
(g43
S'\x00\x00\x00\x00\x00\xa0m\xc0'
p2351
tp2352
Rp2353
sg49
g39
(g43
S'\x00\x00\x00\x00\x00@d@'
p2354
tp2355
Rp2356
sbsg161
I0
sbasg210
g2262
sg211
(lp2357
I0
aI0
asbasg210
g2120
sg211
(lp2358
I0
aI0
asbsg213
g1
(g21
g3
Ntp2359
Rp2360
(dp2361
g25
g1
(g26
g3
Ntp2362
Rp2363
(dp2364
g30
I01
sg31
I19
sg32
I-7
sg33
I11
sbsg34
I136263
sg35
I-112431
sg36
S'Var402'
p2365
sg38
g2055
sg49
g2058
sbsg221
I2
sbag1
(g2
g3
Ntp2366
Rp2367
(dp2368
g7
g1
(g8
g3
Ntp2369
Rp2370
(dp2371
g12
Nsg13
(lp2372
I0
aI0
asg15
Nsg16
(lp2373
I0
aI0
asg18
I01
sg19
(lp2374
g1
(g21
g3
Ntp2375
Rp2376
(dp2377
g25
g1
(g26
g3
Ntp2378
Rp2379
(dp2380
g30
I01
sg31
I19
sg32
I-9
sg33
I9
sbsg34
I147121
sg35
I-110020
sg36
S'Var589'
p2381
sg38
g39
(g43
S'^\x9fJ\x9dJ\xdcj\xc0'
p2382
tp2383
Rp2384
sg49
g39
(g43
S'<\x972U\x89\xf5q@'
p2385
tp2386
Rp2387
sbag1
(g21
g3
Ntp2388
Rp2389
(dp2390
g25
g2379
sg34
I154487
sg35
I-175839
sg36
S'Var590'
p2391
sg38
g39
(g43
S'8\xa2\xc6\xf3\xf7vu\xc0'
p2392
tp2393
Rp2394
sg49
g39
(g43
S'\xbf\xed\xfb\x18\xba\xdbr@'
p2395
tp2396
Rp2397
sbasg63
g1
(g21
g3
Ntp2398
Rp2399
(dp2400
g25
g2379
sg34
I301608
sg35
I-285859
sg36
S'Var591'
p2401
sg38
g39
(g43
S'\xf4\xf85\xa1\x8er\x81\xc0'
p2402
tp2403
Rp2404
sg49
g39
(g43
S'~B\x17\xb7\xa1h\x82@'
p2405
tp2406
Rp2407
sbsg36
S'Add_108'
p2408
sg75
(lp2409
I0
aI0
asg77
g1
(g78
g3
Ntp2410
Rp2411
(dp2412
g82
F6.039937336053031e-06
sg83
I0
sg84
g85
sg86
g87
(S'\x04c\x00\x005\x00\x00\x00\x06\x00\x00\x00\x00\x00\x00\x00\xe0w\xff\xdf'
p2413
tp2414
Rp2415
sg91
F0.006835874111857265
sbsg92
g1
(g78
g3
Ntp2416
Rp2417
(dp2418
g82
F4.76837158203125e-06
sg83
I0
sg84
g85
sg86
g87
(S'\x04c\x00\x005\x00\x00\x00\x07\x00\x00\x00\x00\x00\x00\x00\x00\x00\x00\xc0'
p2419
tp2420
Rp2421
sg91
F0.0029296875
sbsg99
(lp2422
g1
(g8
g3
Ntp2423
Rp2424
(dp2425
g12
Nsg13
(lp2426
I0
aI0
asg15
Nsg16
(lp2427
I0
aI0
asg18
I00
sg19
(lp2428
g1
(g21
g3
Ntp2429
Rp2430
(dp2431
g25
g1
(g26
g3
Ntp2432
Rp2433
(dp2434
g30
I01
sg31
I19
sg32
I-9
sg33
I9
sbsg34
I12133
sg35
I-17750
sg36
S'Var584'
p2435
sg38
g39
(g43
S'\x82\xe0\xa3H\x99UA\xc0'
p2436
tp2437
Rp2438
sg49
g39
(g43
S'w\xce-9\x97\xb27@'
p2439
tp2440
Rp2441
sbag1
(g21
g3
Ntp2442
Rp2443
(dp2444
g25
g2433
sg34
I134988
sg35
I-92270
sg36
S'Var585'
p2445
sg38
g39
(g43
S'=\xa7!K\xe4\x86f\xc0'
p2446
tp2447
Rp2448
sg49
g39
(g43
S'U\xba\x9f\xe1_zp@'
p2449
tp2450
Rp2451
sbasg63
g1
(g21
g3
Ntp2452
Rp2453
(dp2454
g25
g2433
sg34
I147121
sg35
I-110020
sg36
S'Var586'
p2455
sg38
g2384
sg49
g2387
sbsg36
S'Add_107'
p2456
sg75
(lp2457
I0
aI0
asg77
g1
(g78
g3
Ntp2458
Rp2459
(dp2460
g82
F6.357828776030091e-07
sg83
I0
sg84
g85
sg86
g87
(S'\x04c\x00\x005\x00\x00\x00\x08\x00\x00\x00\x00\x00\x00\x00\x80\xef\xff\xff'
p2461
tp2462
Rp2463
sg91
F0.0019531230791471899
sbsg92
g1
(g78
g3
Ntp2464
Rp2465
(dp2466
g82
I0
sg83
I0
sg84
g85
sg86
I0
sg91
I0
sbsg99
(lp2467
g1
(g101
g3
Ntp2468
Rp2469
(dp2470
g92
g1
(g78
g3
Ntp2471
Rp2472
(dp2473
g82
F3.178914388020822e-07
sg83
I0
sg84
g85
sg86
g87
(S'\x04c\x00\x005\x00\x00\x00\t\x00\x00\x00\x00\x00\x00\x00\x00\xff\xff\xff'
p2474
tp2475
Rp2476
sg91
F0.0009765624417923391
sbsg12
I1
sg13
I24
sg15
Nsg77
g1
(g78
g3
Ntp2477
Rp2478
(dp2479
g82
I0
sg83
I0
sg84
g85
sg86
I0
sg91
I0
sbsg114
g115
sg116
I1
sg117
g1
(g118
g3
Ntp2480
Rp2481
(dp2482
g122
g39
(g43
S' *\xf5\x0c\x02\xe4\xa4\xbf'
p2483
tp2484
Rp2485
sg25
g1
(g26
g3
Ntp2486
Rp2487
(dp2488
g30
I01
sg31
I22
sg32
I-25
sg33
I-4
sbsg129
I-1369090
sbsg130
S't7[k+1]'
p2489
sg132
I-9
sg133
g1
(g118
g3
Ntp2490
Rp2491
(dp2492
g122
g2485
sg25
g1
(g26
g3
Ntp2493
Rp2494
(dp2495
g30
I01
sg31
I22
sg32
I-25
sg33
I-4
sbsg129
I-1369090
sbsg63
g1
(g21
g3
Ntp2496
Rp2497
(dp2498
g25
g1
(g26
g3
Ntp2499
Rp2500
(dp2501
g30
I01
sg31
I16
sg32
I-9
sg33
I6
sbsg34
I12133
sg35
I-17750
sg36
S'Var499'
p2502
sg38
g2438
sg49
g2441
sbsg36
S'Mult_t7[k+1]'
p2503
sg31
I21
sg148
g1
(g21
g3
Ntp2504
Rp2505
(dp2506
g25
g1
(g26
g3
Ntp2507
Rp2508
(dp2509
g30
I01
sg31
I19
sg32
I-8
sg33
I10
sbsg34
I217518
sg35
I-148683
sg36
g2489
sg38
g39
(g43
S'\xf6\x9d\x11r[&\x82\xc0'
p2510
tp2511
Rp2512
sg49
g39
(g43
S'\x04\x8d\x8b\xd1r\x8d\x8a@'
p2513
tp2514
Rp2515
sbsg161
I0
sbag1
(g101
g3
Ntp2516
Rp2517
(dp2518
g92
g1
(g78
g3
Ntp2519
Rp2520
(dp2521
g82
F3.1789143880092685e-07
sg83
I0
sg84
g85
sg86
g87
(S'\x04c\x00\x005\x00\x00\x00\t\x00\x00\x00\x00\x00\x00\x00\x00\xe0\xff\xff'
p2522
tp2523
Rp2524
sg91
F0.0009765606373548508
sbsg12
I1
sg13
I19
sg15
Nsg77
g1
(g78
g3
Ntp2525
Rp2526
(dp2527
g82
I0
sg83
I0
sg84
g85
sg86
I0
sg91
I0
sbsg114
g115
sg116
I2
sg117
g1
(g118
g3
Ntp2528
Rp2529
(dp2530
g122
g39
(g43
S'\xcc?\xef\xb3\xf2y\xcb?'
p2531
tp2532
Rp2533
sg25
g1
(g26
g3
Ntp2534
Rp2535
(dp2536
g30
I01
sg31
I20
sg32
I-21
sg33
I-2
sbsg129
I450173
sbsg130
S'x6[k]'
p2537
sg132
I-9
sg133
g1
(g118
g3
Ntp2538
Rp2539
(dp2540
g122
g2533
sg25
g1
(g26
g3
Ntp2541
Rp2542
(dp2543
g30
I01
sg31
I20
sg32
I-21
sg33
I-2
sbsg129
I450173
sbsg63
g1
(g21
g3
Ntp2544
Rp2545
(dp2546
g25
g1
(g26
g3
Ntp2547
Rp2548
(dp2549
g30
I01
sg31
I19
sg32
I-9
sg33
I9
sbsg34
I134988
sg35
I-92270
sg36
S'Var500'
p2550
sg38
g2448
sg49
g2451
sbsg36
S'Mult_x6[k]'
p2551
sg31
I21
sg148
g1
(g21
g3
Ntp2552
Rp2553
(dp2554
g25
g1
(g26
g3
Ntp2555
Rp2556
(dp2557
g30
I01
sg31
I19
sg32
I-7
sg33
I11
sbsg34
I157212
sg35
I-107461
sg36
g2537
sg38
g39
(g43
S'\xfb\xd3\x81\xb3V<\x8a\xc0'
p2558
tp2559
Rp2560
sg49
g39
(g43
S'\xba\x85\x02\x9b\xe00\x93@'
p2561
tp2562
Rp2563
sbsg161
I0
sbasg210
g2469
sg211
(lp2564
I0
aI0
asbag1
(g8
g3
Ntp2565
Rp2566
(dp2567
g12
Nsg13
(lp2568
I0
aI0
asg15
Nsg16
(lp2569
I0
aI0
asg18
I00
sg19
(lp2570
g1
(g21
g3
Ntp2571
Rp2572
(dp2573
g25
g1
(g26
g3
Ntp2574
Rp2575
(dp2576
g30
I01
sg31
I18
sg32
I-9
sg33
I8
sbsg34
I71543
sg35
I-54495
sg36
S'Var519'
p2577
sg38
g39
(g43
S'\xdf\x88\x1a\xcf\xdf\x9bZ\xc0'
p2578
tp2579
Rp2580
sg49
g39
(g43
S'~\xdb\xf71twa@'
p2581
tp2582
Rp2583
sbag1
(g21
g3
Ntp2584
Rp2585
(dp2586
g25
g2575
sg34
I82944
sg35
I-121344
sg36
S'Var520'
p2587
sg38
g39
(g43
S'\x00\x00\x00\x00\x00\xa0m\xc0'
p2588
tp2589
Rp2590
sg49
g39
(g43
S'\x00\x00\x00\x00\x00@d@'
p2591
tp2592
Rp2593
sbasg63
g1
(g21
g3
Ntp2594
Rp2595
(dp2596
g25
g2575
sg34
I154487
sg35
I-175839
sg36
S'Var521'
p2597
sg38
g2394
sg49
g2397
sbsg36
S'Add_94'
p2598
sg75
(lp2599
I0
aI0
asg77
g1
(g78
g3
Ntp2600
Rp2601
(dp2602
g82
F6.357828764187723e-07
sg83
I0
sg84
g85
sg86
g87
(S'\x04c\x00\x005\x00\x00\x00\x08\x00\x00\x00\x00\x00\x00\x00\x00\xf0\xfd\xff'
p2603
tp2604
Rp2605
sg91
F0.0019530635327100754
sbsg92
g1
(g78
g3
Ntp2606
Rp2607
(dp2608
g82
I0
sg83
I0
sg84
g85
sg86
I0
sg91
I0
sbsg99
(lp2609
g1
(g101
g3
Ntp2610
Rp2611
(dp2612
g92
g1
(g78
g3
Ntp2613
Rp2614
(dp2615
g82
F3.1789143880092685e-07
sg83
I0
sg84
g85
sg86
g87
(S'\x04c\x00\x005\x00\x00\x00\t\x00\x00\x00\x00\x00\x00\x00\x00\xe0\xff\xff'
p2616
tp2617
Rp2618
sg91
F0.0009765606373548508
sbsg12
I1
sg13
I19
sg15
Nsg77
g1
(g78
g3
Ntp2619
Rp2620
(dp2621
g82
I0
sg83
I0
sg84
g85
sg86
I0
sg91
I0
sbsg114
g115
sg116
I0
sg117
g1
(g118
g3
Ntp2622
Rp2623
(dp2624
g122
g39
(g43
S'\x00\x93\xc3C\xa8\x0b\xb6?'
p2625
tp2626
Rp2627
sg25
g1
(g26
g3
Ntp2628
Rp2629
(dp2630
g30
I01
sg31
I19
sg32
I-21
sg33
I-3
sbsg129
I180597
sbsg130
S't1[k+1]'
p2631
sg132
I-9
sg133
g1
(g118
g3
Ntp2632
Rp2633
(dp2634
g122
g2627
sg25
g1
(g26
g3
Ntp2635
Rp2636
(dp2637
g30
I01
sg31
I19
sg32
I-21
sg33
I-3
sbsg129
I180597
sbsg63
g1
(g21
g3
Ntp2638
Rp2639
(dp2640
g25
g1
(g26
g3
Ntp2641
Rp2642
(dp2643
g30
I01
sg31
I18
sg32
I-9
sg33
I8
sbsg34
I71543
sg35
I-54495
sg36
S'Var498'
p2644
sg38
g2580
sg49
g2583
sbsg36
S'Mult_t1[k+1]'
p2645
sg31
I21
sg148
g1
(g21
g3
Ntp2646
Rp2647
(dp2648
g25
g1
(g26
g3
Ntp2649
Rp2650
(dp2651
g30
I01
sg31
I19
sg32
I-7
sg33
I11
sbsg34
I207696
sg35
I-158203
sg36
g2631
sg38
g39
(g43
S'S\x17\xee\x7f\xdbO\x93\xc0'
p2652
tp2653
Rp2654
sg49
g39
(g43
S'\xf9$\x95\xaa\x7fZ\x99@'
p2655
tp2656
Rp2657
sbsg161
I0
sbag1
(g101
g3
Ntp2658
Rp2659
(dp2660
g92
g1
(g78
g3
Ntp2661
Rp2662
(dp2663
g82
F3.1789143761784544e-07
sg83
I0
sg84
g85
sg86
g87
(S'\x04c\x00\x005\x00\x00\x00\t\x00\x00\x00\x00\x00\x00\x00\x00\x00\xfc\xff'
p2664
tp2665
Rp2666
sg91
F0.0009765028953552246
sbsg12
I1
sg13
I14
sg15
Nsg77
g1
(g78
g3
Ntp2667
Rp2668
(dp2669
g82
I0
sg83
I0
sg84
g85
sg86
I0
sg91
I0
sbsg114
g115
sg116
I3
sg117
g1
(g118
g3
Ntp2670
Rp2671
(dp2672
g122
g39
(g43
S'\x00\x00\x00\x00\x00\x00\xf0?'
p2673
tp2674
Rp2675
sg25
g1
(g26
g3
Ntp2676
Rp2677
(dp2678
g30
I01
sg31
I15
sg32
I-13
sg33
I1
sbsg129
I8192
sbsg130
S'u1[k]'
p2679
sg132
I-9
sg133
g1
(g118
g3
Ntp2680
Rp2681
(dp2682
g122
g2675
sg25
g1
(g26
g3
Ntp2683
Rp2684
(dp2685
g30
I01
sg31
I15
sg32
I-13
sg33
I1
sbsg129
I8192
sbsg63
g1
(g21
g3
Ntp2686
Rp2687
(dp2688
g25
g1
(g26
g3
Ntp2689
Rp2690
(dp2691
g30
I01
sg31
I18
sg32
I-9
sg33
I8
sbsg34
I82944
sg35
I-121344
sg36
S'Var501'
p2692
sg38
g2590
sg49
g2593
sbsg36
S'Mult_u1[k]'
p2693
sg31
I21
sg148
g1
(g21
g3
Ntp2694
Rp2695
(dp2696
g25
g1
(g26
g3
Ntp2697
Rp2698
(dp2699
g30
I01
sg31
I19
sg32
I-10
sg33
I8
sbsg34
I165888
sg35
I-242688
sg36
g2679
sg38
g39
(g43
S'\x00\x00\x00\x00\x00\xa0m\xc0'
p2700
tp2701
Rp2702
sg49
g39
(g43
S'\x00\x00\x00\x00\x00@d@'
p2703
tp2704
Rp2705
sbsg161
I0
sbasg210
g2611
sg211
(lp2706
I0
aI0
asbasg210
g2469
sg211
(lp2707
I0
aI0
asbsg213
g1
(g21
g3
Ntp2708
Rp2709
(dp2710
g25
g1
(g26
g3
Ntp2711
Rp2712
(dp2713
g30
I01
sg31
I19
sg32
I-7
sg33
I11
sbsg34
I75402
sg35
I-71465
sg36
S'Var497'
p2714
sg38
g2404
sg49
g2407
sbsg221
I2
sbag1
(g2
g3
Ntp2715
Rp2716
(dp2717
g7
g1
(g8
g3
Ntp2718
Rp2719
(dp2720
g12
Nsg13
(lp2721
I0
aI0
asg15
Nsg16
(lp2722
I0
aI0
asg18
I01
sg19
(lp2723
g1
(g21
g3
Ntp2724
Rp2725
(dp2726
g25
g1
(g26
g3
Ntp2727
Rp2728
(dp2729
g30
I01
sg31
I19
sg32
I-9
sg33
I9
sbsg34
I215240
sg35
I-228940
sg36
S'Var684'
p2730
sg38
g39
(g43
S'^\xa1\x17\xcdc\xf2{\xc0'
p2731
tp2732
Rp2733
sg49
g39
(g43
S'#Yp4@Fz@'
p2734
tp2735
Rp2736
sbag1
(g21
g3
Ntp2737
Rp2738
(dp2739
g25
g2728
sg34
I194402
sg35
I-206242
sg36
S'Var685'
p2740
sg38
g39
(g43
S'\xf4\x7fX\xc8\x10-y\xc0'
p2741
tp2742
Rp2743
sg49
g39
(g43
S'\nt=\xa0\r\xbbw@'
p2744
tp2745
Rp2746
sbasg63
g1
(g21
g3
Ntp2747
Rp2748
(dp2749
g25
g2728
sg34
I409642
sg35
I-435182
sg36
S'Var686'
p2750
sg38
g39
(g43
S'\xa9\x10\xb8J\xba\x8f\x8a\xc0'
p2751
tp2752
Rp2753
sg49
g39
(g43
S'\x96\xe6V\xea\xa6\x00\x89@'
p2754
tp2755
Rp2756
sbsg36
S'Add_126'
p2757
sg75
(lp2758
I0
aI0
asg77
g1
(g78
g3
Ntp2759
Rp2760
(dp2761
g82
F6.039937337218694e-06
sg83
I0
sg84
g85
sg86
g87
(S'\x04c\x00\x005\x00\x00\x00\x06\x00\x00\x00\x00\x00\x00\x00\x00\xe7\xff\xdf'
p2762
tp2763
Rp2764
sg91
F0.006835925858467817
sbsg92
g1
(g78
g3
Ntp2765
Rp2766
(dp2767
g82
F4.76837158203125e-06
sg83
I0
sg84
g85
sg86
g87
(S'\x04c\x00\x005\x00\x00\x00\x07\x00\x00\x00\x00\x00\x00\x00\x00\x00\x00\xc0'
p2768
tp2769
Rp2770
sg91
F0.0029296875
sbsg99
(lp2771
g1
(g8
g3
Ntp2772
Rp2773
(dp2774
g12
Nsg13
(lp2775
I0
aI0
asg15
Nsg16
(lp2776
I0
aI0
asg18
I00
sg19
(lp2777
g1
(g21
g3
Ntp2778
Rp2779
(dp2780
g25
g1
(g26
g3
Ntp2781
Rp2782
(dp2783
g30
I01
sg31
I19
sg32
I-9
sg33
I9
sbsg34
I104968
sg35
I-153565
sg36
S'Var679'
p2784
sg38
g39
(g43
S'\xa9[\x95\xd5\xe7\xber\xc0'
p2785
tp2786
Rp2787
sg49
g39
(g43
S'w\x9a=x\x87\xa0i@'
p2788
tp2789
Rp2790
sbag1
(g21
g3
Ntp2791
Rp2792
(dp2793
g25
g2782
sg34
I110272
sg35
I-75375
sg36
S'Var680'
p2794
sg38
g39
(g43
S'j\x8b\x04\xef\xf7fb\xc0'
p2795
tp2796
Rp2797
sg49
g39
(g43
S'\xcf\x17\xa3\xf0\xf8\xebj@'
p2798
tp2799
Rp2800
sbasg63
g1
(g21
g3
Ntp2801
Rp2802
(dp2803
g25
g2782
sg34
I215240
sg35
I-228940
sg36
S'Var681'
p2804
sg38
g2733
sg49
g2736
sbsg36
S'Add_125'
p2805
sg75
(lp2806
I0
aI0
asg77
g1
(g78
g3
Ntp2807
Rp2808
(dp2809
g82
F6.357828776029379e-07
sg83
I0
sg84
g85
sg86
g87
(S'\x04c\x00\x005\x00\x00\x00\x08\x00\x00\x00\x00\x00\x00\x00\x00\xec\xff\xff'
p2810
tp2811
Rp2812
sg91
F0.0019531226716935635
sbsg92
g1
(g78
g3
Ntp2813
Rp2814
(dp2815
g82
I0
sg83
I0
sg84
g85
sg86
I0
sg91
I0
sbsg99
(lp2816
g1
(g101
g3
Ntp2817
Rp2818
(dp2819
g92
g1
(g78
g3
Ntp2820
Rp2821
(dp2822
g82
F3.1789143880201105e-07
sg83
I0
sg84
g85
sg86
g87
(S'\x04c\x00\x005\x00\x00\x00\t\x00\x00\x00\x00\x00\x00\x00\x00\xf8\xff\xff'
p2823
tp2824
Rp2825
sg91
F0.0009765620343387127
sbsg12
I1
sg13
I21
sg15
Nsg77
g1
(g78
g3
Ntp2826
Rp2827
(dp2828
g82
I0
sg83
I0
sg84
g85
sg86
I0
sg91
I0
sbsg114
g115
sg116
I1
sg117
g1
(g118
g3
Ntp2829
Rp2830
(dp2831
g122
g39
(g43
S'\x8a\xa4G\\\xe6\xd3\xde\xbf'
p2832
tp2833
Rp2834
sg25
g1
(g26
g3
Ntp2835
Rp2836
(dp2837
g30
I01
sg31
I22
sg32
I-22
sg33
I-1
sbsg129
I-2020326
sbsg130
S't8[k+1]'
p2838
sg132
I-9
sg133
g1
(g118
g3
Ntp2839
Rp2840
(dp2841
g122
g2834
sg25
g1
(g26
g3
Ntp2842
Rp2843
(dp2844
g30
I01
sg31
I22
sg32
I-22
sg33
I-1
sbsg129
I-2020326
sbsg63
g1
(g21
g3
Ntp2845
Rp2846
(dp2847
g25
g1
(g26
g3
Ntp2848
Rp2849
(dp2850
g30
I01
sg31
I19
sg32
I-9
sg33
I9
sbsg34
I104968
sg35
I-153565
sg36
S'Var594'
p2851
sg38
g2787
sg49
g2790
sbsg36
S'Mult_t8[k+1]'
p2852
sg31
I21
sg148
g1
(g21
g3
Ntp2853
Rp2854
(dp2855
g25
g1
(g26
g3
Ntp2856
Rp2857
(dp2858
g30
I01
sg31
I19
sg32
I-8
sg33
I10
sbsg34
I159404
sg35
I-108960
sg36
g2838
sg38
g39
(g43
S'\x80\x95\xd9\x8d\x00\x9az\xc0'
p2859
tp2860
Rp2861
sg49
g39
(g43
S'f\x9a\xfb\xf5cu\x83@'
p2862
tp2863
Rp2864
sbsg161
I0
sbag1
(g101
g3
Ntp2865
Rp2866
(dp2867
g92
g1
(g78
g3
Ntp2868
Rp2869
(dp2870
g82
F3.1789143880092685e-07
sg83
I0
sg84
g85
sg86
g87
(S'\x04c\x00\x005\x00\x00\x00\t\x00\x00\x00\x00\x00\x00\x00\x00\xe0\xff\xff'
p2871
tp2872
Rp2873
sg91
F0.0009765606373548508
sbsg12
I1
sg13
I19
sg15
Nsg77
g1
(g78
g3
Ntp2874
Rp2875
(dp2876
g82
I0
sg83
I0
sg84
g85
sg86
I0
sg91
I0
sbsg114
g115
sg116
I2
sg117
g1
(g118
g3
Ntp2877
Rp2878
(dp2879
g122
g39
(g43
S'\xd9\x1f9^\x15\xb3\xc8?'
p2880
tp2881
Rp2882
sg25
g1
(g26
g3
Ntp2883
Rp2884
(dp2885
g30
I01
sg31
I20
sg32
I-21
sg33
I-2
sbsg129
I404677
sbsg130
S'x7[k]'
p2886
sg132
I-9
sg133
g1
(g118
g3
Ntp2887
Rp2888
(dp2889
g122
g2882
sg25
g1
(g26
g3
Ntp2890
Rp2891
(dp2892
g30
I01
sg31
I20
sg32
I-21
sg33
I-2
sbsg129
I404677
sbsg63
g1
(g21
g3
Ntp2893
Rp2894
(dp2895
g25
g1
(g26
g3
Ntp2896
Rp2897
(dp2898
g30
I01
sg31
I18
sg32
I-9
sg33
I8
sbsg34
I110272
sg35
I-75375
sg36
S'Var595'
p2899
sg38
g2797
sg49
g2800
sbsg36
S'Mult_x7[k]'
p2900
sg31
I21
sg148
g1
(g21
g3
Ntp2901
Rp2902
(dp2903
g25
g1
(g26
g3
Ntp2904
Rp2905
(dp2906
g30
I01
sg31
I19
sg32
I-7
sg33
I11
sbsg34
I142865
sg35
I-97654
sg36
g2886
sg38
g39
(g43
S'\xe9\xf1\x1f9d\xd7\x87\xc0'
p2907
tp2908
Rp2909
sg49
g39
(g43
S'-\xff\x14\x92\x84p\x91@'
p2910
tp2911
Rp2912
sbsg161
I0
sbasg210
g2818
sg211
(lp2913
I0
aI0
asbag1
(g8
g3
Ntp2914
Rp2915
(dp2916
g12
Nsg13
(lp2917
I0
aI0
asg15
Nsg16
(lp2918
I0
aI0
asg18
I00
sg19
(lp2919
g1
(g21
g3
Ntp2920
Rp2921
(dp2922
g25
g1
(g26
g3
Ntp2923
Rp2924
(dp2925
g30
I01
sg31
I18
sg32
I-9
sg33
I8
sbsg34
I111458
sg35
I-84898
sg36
S'Var614'
p2926
sg38
g39
(g43
S'\xe7\xff\xb0\x90!\xbad\xc0'
p2927
tp2928
Rp2929
sg49
g39
(g43
S'\x15\xe8z@\x1b6k@'
p2930
tp2931
Rp2932
sbag1
(g21
g3
Ntp2933
Rp2934
(dp2935
g25
g2924
sg34
I82944
sg35
I-121344
sg36
S'Var615'
p2936
sg38
g39
(g43
S'\x00\x00\x00\x00\x00\xa0m\xc0'
p2937
tp2938
Rp2939
sg49
g39
(g43
S'\x00\x00\x00\x00\x00@d@'
p2940
tp2941
Rp2942
sbasg63
g1
(g21
g3
Ntp2943
Rp2944
(dp2945
g25
g2924
sg34
I194402
sg35
I-206242
sg36
S'Var616'
p2946
sg38
g2743
sg49
g2746
sbsg36
S'Add_112'
p2947
sg75
(lp2948
I0
aI0
asg77
g1
(g78
g3
Ntp2949
Rp2950
(dp2951
g82
F6.357828775845065e-07
sg83
I0
sg84
g85
sg86
g87
(S'\x04c\x00\x005\x00\x00\x00\x08\x00\x00\x00\x00\x00\x00\x00\x00\xb0\xff\xff'
p2952
tp2953
Rp2954
sg91
F0.0019531156867742538
sbsg92
g1
(g78
g3
Ntp2955
Rp2956
(dp2957
g82
I0
sg83
I0
sg84
g85
sg86
I0
sg91
I0
sbsg99
(lp2958
g1
(g101
g3
Ntp2959
Rp2960
(dp2961
g92
g1
(g78
g3
Ntp2962
Rp2963
(dp2964
g82
F3.1789143880092685e-07
sg83
I0
sg84
g85
sg86
g87
(S'\x04c\x00\x005\x00\x00\x00\t\x00\x00\x00\x00\x00\x00\x00\x00\xe0\xff\xff'
p2965
tp2966
Rp2967
sg91
F0.0009765606373548508
sbsg12
I1
sg13
I19
sg15
Nsg77
g1
(g78
g3
Ntp2968
Rp2969
(dp2970
g82
I0
sg83
I0
sg84
g85
sg86
I0
sg91
I0
sbsg114
g115
sg116
I0
sg117
g1
(g118
g3
Ntp2971
Rp2972
(dp2973
g122
g39
(g43
S'\xe0\xdf\xf5\x10%,\xc1?'
p2974
tp2975
Rp2976
sg25
g1
(g26
g3
Ntp2977
Rp2978
(dp2979
g30
I01
sg31
I20
sg32
I-21
sg33
I-2
sbsg129
I281353
sbsg130
S't1[k+1]'
p2980
sg132
I-9
sg133
g1
(g118
g3
Ntp2981
Rp2982
(dp2983
g122
g2976
sg25
g1
(g26
g3
Ntp2984
Rp2985
(dp2986
g30
I01
sg31
I20
sg32
I-21
sg33
I-2
sbsg129
I281353
sbsg63
g1
(g21
g3
Ntp2987
Rp2988
(dp2989
g25
g1
(g26
g3
Ntp2990
Rp2991
(dp2992
g30
I01
sg31
I18
sg32
I-9
sg33
I8
sbsg34
I111458
sg35
I-84898
sg36
S'Var593'
p2993
sg38
g2929
sg49
g2932
sbsg36
S'Mult_t1[k+1]'
p2994
sg31
I21
sg148
g1
(g21
g3
Ntp2995
Rp2996
(dp2997
g25
g1
(g26
g3
Ntp2998
Rp2999
(dp3000
g30
I01
sg31
I19
sg32
I-7
sg33
I11
sbsg34
I207696
sg35
I-158203
sg36
g2980
sg38
g39
(g43
S'S\x17\xee\x7f\xdbO\x93\xc0'
p3001
tp3002
Rp3003
sg49
g39
(g43
S'\xf9$\x95\xaa\x7fZ\x99@'
p3004
tp3005
Rp3006
sbsg161
I0
sbag1
(g101
g3
Ntp3007
Rp3008
(dp3009
g92
g1
(g78
g3
Ntp3010
Rp3011
(dp3012
g82
F3.178914387835796e-07
sg83
I0
sg84
g85
sg86
g87
(S'\x04c\x00\x005\x00\x00\x00\t\x00\x00\x00\x00\x00\x00\x00\x00\x80\xff\xff'
p3013
tp3014
Rp3015
sg91
F0.0009765550494194031
sbsg12
I1
sg13
I17
sg15
Nsg77
g1
(g78
g3
Ntp3016
Rp3017
(dp3018
g82
I0
sg83
I0
sg84
g85
sg86
I0
sg91
I0
sbsg114
g115
sg116
I3
sg117
g1
(g118
g3
Ntp3019
Rp3020
(dp3021
g122
g39
(g43
S'\x00\x00\x00\x00\x00\x00\xf0?'
p3022
tp3023
Rp3024
sg25
g1
(g26
g3
Ntp3025
Rp3026
(dp3027
g30
I01
sg31
I18
sg32
I-16
sg33
I1
sbsg129
I65536
sbsg130
S'u1[k]'
p3028
sg132
I-9
sg133
g1
(g118
g3
Ntp3029
Rp3030
(dp3031
g122
g3024
sg25
g1
(g26
g3
Ntp3032
Rp3033
(dp3034
g30
I01
sg31
I18
sg32
I-16
sg33
I1
sbsg129
I65536
sbsg63
g1
(g21
g3
Ntp3035
Rp3036
(dp3037
g25
g1
(g26
g3
Ntp3038
Rp3039
(dp3040
g30
I01
sg31
I18
sg32
I-9
sg33
I8
sbsg34
I82944
sg35
I-121344
sg36
S'Var596'
p3041
sg38
g2939
sg49
g2942
sbsg36
S'Mult_u1[k]'
p3042
sg31
I21
sg148
g1
(g21
g3
Ntp3043
Rp3044
(dp3045
g25
g1
(g26
g3
Ntp3046
Rp3047
(dp3048
g30
I01
sg31
I19
sg32
I-10
sg33
I8
sbsg34
I165888
sg35
I-242688
sg36
g3028
sg38
g39
(g43
S'\x00\x00\x00\x00\x00\xa0m\xc0'
p3049
tp3050
Rp3051
sg49
g39
(g43
S'\x00\x00\x00\x00\x00@d@'
p3052
tp3053
Rp3054
sbsg161
I0
sbasg210
g2960
sg211
(lp3055
I0
aI0
asbasg210
g2818
sg211
(lp3056
I0
aI0
asbsg213
g1
(g21
g3
Ntp3057
Rp3058
(dp3059
g25
g1
(g26
g3
Ntp3060
Rp3061
(dp3062
g30
I01
sg31
I19
sg32
I-7
sg33
I11
sbsg34
I102410
sg35
I-108796
sg36
S'Var592'
p3063
sg38
g2753
sg49
g2756
sbsg221
I2
sbag1
(g2
g3
Ntp3064
Rp3065
(dp3066
g7
g1
(g8
g3
Ntp3067
Rp3068
(dp3069
g12
Nsg13
(lp3070
I0
aI0
asg15
Nsg16
(lp3071
I0
aI0
asg18
I01
sg19
(lp3072
g1
(g21
g3
Ntp3073
Rp3074
(dp3075
g25
g1
(g26
g3
Ntp3076
Rp3077
(dp3078
g30
I01
sg31
I19
sg32
I-9
sg33
I9
sbsg34
I226730
sg35
I-331698
sg36
S'Var708'
p3079
sg38
g39
(g43
S'M\xe7\xce\xf7\xc6>\x84\xc0'
p3080
tp3081
Rp3082
sg49
g39
(g43
S"H\xd1'\xd1P\xad{@"
p3083
tp3084
Rp3085
sbag1
(g21
g3
Ntp3086
Rp3087
(dp3088
g25
g3077
sg34
I109836
sg35
I-83663
sg36
S'Var709'
p3089
sg38
g39
(g43
S'\xa0\x87\xd5d\xf0ld\xc0'
p3090
tp3091
Rp3092
sg49
g39
(g43
S'\x06\xcb\xde\xf9\xc3\xd0j@'
p3093
tp3094
Rp3095
sbasg63
g1
(g21
g3
Ntp3096
Rp3097
(dp3098
g25
g3077
sg34
I336566
sg35
I-415361
sg36
S'Var710'
p3099
sg38
g39
(g43
S'5I\x04\x11\x03Z\x89\xc0'
p3100
tp3101
Rp3102
sg49
g39
(g43
S'f\x9b\x0bg\xd9\x8a\x84@'
p3103
tp3104
Rp3105
sbsg36
S'Add_130'
p3106
sg75
(lp3107
I0
aI0
asg77
g1
(g78
g3
Ntp3108
Rp3109
(dp3110
g82
F5.7220458984314285e-06
sg83
I0
sg84
g85
sg86
g87
(S'\x04c\x00\x005\x00\x00\x00\x06\x00\x00\x00\x00\x00\x00\x00\x00\xf2\xff\xbf'
p3111
tp3112
Rp3113
sg91
F0.005859368480741978
sbsg92
g1
(g78
g3
Ntp3114
Rp3115
(dp3116
g82
F4.76837158203125e-06
sg83
I0
sg84
g85
sg86
g87
(S'\x04c\x00\x005\x00\x00\x00\x07\x00\x00\x00\x00\x00\x00\x00\x00\x00\x00\xc0'
p3117
tp3118
Rp3119
sg91
F0.0029296875
sbsg99
(lp3120
g1
(g8
g3
Ntp3121
Rp3122
(dp3123
g12
Nsg13
(lp3124
I0
aI0
asg15
Nsg16
(lp3125
I0
aI0
asg18
I00
sg19
(lp3126
g1
(g21
g3
Ntp3127
Rp3128
(dp3129
g25
g1
(g26
g3
Ntp3130
Rp3131
(dp3132
g30
I01
sg31
I19
sg32
I-9
sg33
I9
sbsg34
I161507
sg35
I-236279
sg36
S'Var703'
p3133
sg38
g39
(g43
S'\x18B#%\xb9\xd7|\xc0'
p3134
tp3135
Rp3136
sg49
g39
(g43
S'\xd8\xa1b\x19\x1a\xb7s@'
p3137
tp3138
Rp3139
sbag1
(g21
g3
Ntp3140
Rp3141
(dp3142
g25
g3131
sg34
I65223
sg35
I-95419
sg36
S'Var704'
p3143
sg38
g39
(g43
S'\x04\x19\xf5\x94\xa9Kg\xc0'
p3144
tp3145
Rp3146
sg49
g39
(g43
S'\xbe\xbd\x14\xdf\xda\xd8_@'
p3147
tp3148
Rp3149
sbasg63
g1
(g21
g3
Ntp3150
Rp3151
(dp3152
g25
g3131
sg34
I226730
sg35
I-331698
sg36
S'Var705'
p3153
sg38
g3082
sg49
g3085
sbsg36
S'Add_129'
p3154
sg75
(lp3155
I0
aI0
asg77
g1
(g78
g3
Ntp3156
Rp3157
(dp3158
g82
F6.357828775992516e-07
sg83
I0
sg84
g85
sg86
g87
(S'\x04c\x00\x005\x00\x00\x00\x08\x00\x00\x00\x00\x00\x00\x00\x00\xd8\xff\xff'
p3159
tp3160
Rp3161
sg91
F0.001953120343387127
sbsg92
g1
(g78
g3
Ntp3162
Rp3163
(dp3164
g82
I0
sg83
I0
sg84
g85
sg86
I0
sg91
I0
sbsg99
(lp3165
g1
(g101
g3
Ntp3166
Rp3167
(dp3168
g92
g1
(g78
g3
Ntp3169
Rp3170
(dp3171
g82
F3.178914388017942e-07
sg83
I0
sg84
g85
sg86
g87
(S'\x04c\x00\x005\x00\x00\x00\t\x00\x00\x00\x00\x00\x00\x00\x00\xf0\xff\xff'
p3172
tp3173
Rp3174
sg91
F0.0009765615686774254
sbsg12
I1
sg13
I20
sg15
Nsg77
g1
(g78
g3
Ntp3175
Rp3176
(dp3177
g82
I0
sg83
I0
sg84
g85
sg86
I0
sg91
I0
sbsg114
g115
sg116
I1
sg117
g1
(g118
g3
Ntp3178
Rp3179
(dp3180
g122
g39
(g43
S'\xcc\x90^Bl\xe0\xd8\xbf'
p3181
tp3182
Rp3183
sg25
g1
(g26
g3
Ntp3184
Rp3185
(dp3186
g30
I01
sg31
I22
sg32
I-22
sg33
I-1
sbsg129
I-1630316
sbsg130
S'x8[k]'
p3187
sg132
I-9
sg133
g1
(g118
g3
Ntp3188
Rp3189
(dp3190
g122
g3183
sg25
g1
(g26
g3
Ntp3191
Rp3192
(dp3193
g30
I01
sg31
I22
sg32
I-22
sg33
I-1
sbsg129
I-1630316
sbsg63
g1
(g21
g3
Ntp3194
Rp3195
(dp3196
g25
g1
(g26
g3
Ntp3197
Rp3198
(dp3199
g30
I01
sg31
I19
sg32
I-9
sg33
I9
sbsg34
I161507
sg35
I-236279
sg36
S'Var689'
p3200
sg38
g3136
sg49
g3139
sbsg36
S'Mult_x8[k]'
p3201
sg31
I21
sg148
g1
(g21
g3
Ntp3202
Rp3203
(dp3204
g25
g1
(g26
g3
Ntp3205
Rp3206
(dp3207
g30
I01
sg31
I19
sg32
I-7
sg33
I11
sbsg34
I151968
sg35
I-103877
sg36
g3187
sg38
g39
(g43
S'\t&6\xb8R\\\x89\xc0'
p3208
tp3209
Rp3210
sg49
g39
(g43
S'\xe4us\x9e\x03\x8d\x92@'
p3211
tp3212
Rp3213
sbsg161
I0
sbag1
(g101
g3
Ntp3214
Rp3215
(dp3216
g92
g1
(g78
g3
Ntp3217
Rp3218
(dp3219
g82
F3.178914387974574e-07
sg83
I0
sg84
g85
sg86
g87
(S'\x04c\x00\x005\x00\x00\x00\t\x00\x00\x00\x00\x00\x00\x00\x00\xc0\xff\xff'
p3220
tp3221
Rp3222
sg91
F0.0009765587747097015
sbsg12
I1
sg13
I18
sg15
Nsg77
g1
(g78
g3
Ntp3223
Rp3224
(dp3225
g82
I0
sg83
I0
sg84
g85
sg86
I0
sg91
I0
sbsg114
g115
sg116
I2
sg117
g1
(g118
g3
Ntp3226
Rp3227
(dp3228
g122
g39
(g43
S'p\x8c\x13\x0f\xc3)\xe9?'
p3229
tp3230
Rp3231
sg25
g1
(g26
g3
Ntp3232
Rp3233
(dp3234
g30
I01
sg31
I18
sg32
I-17
sg33
I0
sbsg129
I103068
sbsg130
S'u1[k]'
p3235
sg132
I-9
sg133
g1
(g118
g3
Ntp3236
Rp3237
(dp3238
g122
g3231
sg25
g1
(g26
g3
Ntp3239
Rp3240
(dp3241
g30
I01
sg31
I18
sg32
I-17
sg33
I0
sbsg129
I103068
sbsg63
g1
(g21
g3
Ntp3242
Rp3243
(dp3244
g25
g1
(g26
g3
Ntp3245
Rp3246
(dp3247
g30
I01
sg31
I18
sg32
I-9
sg33
I8
sbsg34
I65223
sg35
I-95419
sg36
S'Var690'
p3248
sg38
g3146
sg49
g3149
sbsg36
S'Mult_u1[k]'
p3249
sg31
I21
sg148
g1
(g21
g3
Ntp3250
Rp3251
(dp3252
g25
g1
(g26
g3
Ntp3253
Rp3254
(dp3255
g30
I01
sg31
I19
sg32
I-10
sg33
I8
sbsg34
I165888
sg35
I-242688
sg36
g3235
sg38
g39
(g43
S'\x00\x00\x00\x00\x00\xa0m\xc0'
p3256
tp3257
Rp3258
sg49
g39
(g43
S'\x00\x00\x00\x00\x00@d@'
p3259
tp3260
Rp3261
sbsg161
I0
sbasg210
g3167
sg211
(lp3262
I0
aI0
asbag1
(g101
g3
Ntp3263
Rp3264
(dp3265
g92
g1
(g78
g3
Ntp3266
Rp3267
(dp3268
g82
F3.1789143880092685e-07
sg83
I0
sg84
g85
sg86
g87
(S'\x04c\x00\x005\x00\x00\x00\t\x00\x00\x00\x00\x00\x00\x00\x00\xe0\xff\xff'
p3269
tp3270
Rp3271
sg91
F0.0009765606373548508
sbsg12
I1
sg13
I19
sg15
Nsg77
g1
(g78
g3
Ntp3272
Rp3273
(dp3274
g82
I0
sg83
I0
sg84
g85
sg86
I0
sg91
I0
sbsg114
g115
sg116
I0
sg117
g1
(g118
g3
Ntp3275
Rp3276
(dp3277
g122
g39
(g43
S'`\xfa\x1c\xe10\xec\xc0?'
p3278
tp3279
Rp3280
sg25
g1
(g26
g3
Ntp3281
Rp3282
(dp3283
g30
I01
sg31
I20
sg32
I-21
sg33
I-2
sbsg129
I277260
sbsg130
S't1[k+1]'
p3284
sg132
I-9
sg133
g1
(g118
g3
Ntp3285
Rp3286
(dp3287
g122
g3280
sg25
g1
(g26
g3
Ntp3288
Rp3289
(dp3290
g30
I01
sg31
I20
sg32
I-21
sg33
I-2
sbsg129
I277260
sbsg63
g1
(g21
g3
Ntp3291
Rp3292
(dp3293
g25
g1
(g26
g3
Ntp3294
Rp3295
(dp3296
g30
I01
sg31
I18
sg32
I-9
sg33
I8
sbsg34
I109836
sg35
I-83663
sg36
S'Var688'
p3297
sg38
g3092
sg49
g3095
sbsg36
S'Mult_t1[k+1]'
p3298
sg31
I21
sg148
g1
(g21
g3
Ntp3299
Rp3300
(dp3301
g25
g1
(g26
g3
Ntp3302
Rp3303
(dp3304
g30
I01
sg31
I19
sg32
I-7
sg33
I11
sbsg34
I207696
sg35
I-158203
sg36
g3284
sg38
g39
(g43
S'S\x17\xee\x7f\xdbO\x93\xc0'
p3305
tp3306
Rp3307
sg49
g39
(g43
S'\xf9$\x95\xaa\x7fZ\x99@'
p3308
tp3309
Rp3310
sbsg161
I0
sbasg210
g3167
sg211
(lp3311
I0
aI0
asbsg213
g1
(g21
g3
Ntp3312
Rp3313
(dp3314
g25
g1
(g26
g3
Ntp3315
Rp3316
(dp3317
g30
I01
sg31
I19
sg32
I-7
sg33
I11
sbsg34
I84141
sg35
I-103841
sg36
S'Var687'
p3318
sg38
g3102
sg49
g3105
sbsg221
I2
sba.