(lp0
ccopy_reg
_reconstructor
p1
(coSoP.oSoP_class
oSoP
p2
c__builtin__
object
p3
Ntp4
Rp5
(dp6
S'_Top'
p7
g1
(coSoP.Adder
Adder
p8
g3
Ntp9
Rp10
(dp11
S'_label'
p12
NsS'_rshift'
p13
(lp14
I0
aI0
asS'_result'
p15
NsS'_total_error'
p16
g1
(coSoP.Error
Error
p17
g3
Ntp18
Rp19
(dp20
S'_variance'
p21
F1.5894571940098384e-06
sS'_sup'
p22
I0
sS'_mode'
p23
S'truncature'
p24
sS'_inf'
p25
F-0.0058593712747097015
sS'_mean'
p26
F0.0029296856373548508
sbsS'_top'
p27
I01
sS'_nrl'
p28
I1
sS'_var_op'
p29
(lp30
g1
(coSoP.Variable
Variable
p31
g3
Ntp32
Rp33
(dp34
S'_FPF'
p35
g1
(coSoP.FPF
FPF
p36
g3
Ntp37
Rp38
(dp39
S'_signed'
p40
I01
sS'_wl'
p41
I21
sS'_lsb'
p42
I-9
sS'_msb'
p43
I11
sbsS'_integer_sup'
p44
I716704
sS'_integer_inf'
p45
I-554835
sS'_name'
p46
S'Var5409'
p47
sS'_value_inf'
p48
cnumpy.core.multiarray
scalar
p49
(cnumpy
dtype
p50
(S'f8'
p51
I0
I1
tp52
Rp53
(I3
S'<'
p54
NNNI-1
I-1
I0
tp55
bS'l\xac\xb0\x99\xa5\xee\x90\xc0'
p56
tp57
Rp58
sS'_value_sup'
p59
g49
(g53
S'wT(\t?\xdf\x95@'
p60
tp61
Rp62
sbag1
(g31
g3
Ntp63
Rp64
(dp65
g35
g38
sg44
I114080
sg45
I-77979
sg46
S'Var5410'
p66
sg48
g49
(g53
S'\xa6V\xeb1\xaf\tc\xc0'
p67
tp68
Rp69
sg59
g49
(g53
S'\x82\x83f\x0b\x05\xdak@'
p70
tp71
Rp72
sbasS'_var_result'
p73
g1
(g31
g3
Ntp74
Rp75
(dp76
g35
g38
sg44
I830784
sg45
I-632814
sg46
S'Var5411'
p77
sg48
g49
(g53
S'A\x17\xee\x7f\xdbO\x93\xc0'
p78
tp79
Rp80
sg59
g49
(g53
S'\xe7$\x95\xaa\x7fZ\x99@'
p81
tp82
Rp83
sbsg46
S'Add_1036'
p84
sS'_nll'
p85
I1
sS'_local_error'
p86
g1
(g17
g3
Ntp87
Rp88
(dp89
g21
F9.5367431640625e-07
sg22
I0
sg23
g24
sg25
F-0.001953125
sg26
F0.0009765625
sbsS'_operands'
p90
(lp91
g1
(coSoP.Multiplier
Multiplier
p92
g3
Ntp93
Rp94
(dp95
g86
g1
(g17
g3
Ntp96
Rp97
(dp98
g21
F3.178914388017942e-07
sg22
I0
sg23
g24
sg25
F-0.0019531231373548508
sg26
F0.0009765615686774254
sbsg12
I1
sg13
I20
sg15
Nsg16
g1
(g17
g3
Ntp99
Rp100
(dp101
g21
I0
sg22
I0
sg23
g24
sg25
I0
sg26
I0
sbsS'_RndOff'
p102
S'RAM'
p103
sS'_index'
p104
I0
sS'_cst_bs'
p105
g1
(coSoP.Constant
Constant
p106
g3
Ntp107
Rp108
(dp109
S'_value'
p110
g49
(g53
S'\xc4\xdb\xccS}<\xf5?'
p111
tp112
Rp113
sg35
g1
(g36
g3
Ntp114
Rp115
(dp116
g40
I01
sg41
I23
sg42
I-21
sg43
I1
sbsS'_integer'
p117
I2783483
sbsS'_var_name'
p118
S'x1[k]'
p119
sS'_lsb_final'
p120
I-9
sS'_cst'
p121
g1
(g106
g3
Ntp122
Rp123
(dp124
g110
g113
sg35
g1
(g36
g3
Ntp125
Rp126
(dp127
g40
I01
sg41
I23
sg42
I-21
sg43
I1
sbsg117
I2783483
sbsg73
g1
(g31
g3
Ntp128
Rp129
(dp130
g35
g1
(g36
g3
Ntp131
Rp132
(dp133
g40
I01
sg41
I21
sg42
I-9
sg43
I11
sbsg44
I716704
sg45
I-554835
sg46
S'Var5405'
p134
sg48
g58
sg59
g62
sbsg46
S'Mult_x1[k]'
p135
sg41
I21
sS'_var'
p136
g1
(g31
g3
Ntp137
Rp138
(dp139
g35
g1
(g36
g3
Ntp140
Rp141
(dp142
g40
I01
sg41
I20
sg42
I-8
sg43
I11
sbsg44
I269992
sg45
I-209014
sg46
g119
sg48
g49
(g53
S'\xdb\xd0g\xe2\xae\x83\x89\xc0'
p143
tp144
Rp145
sg59
g49
(g53
S'\x91\xb8\xba\x15\xa0z\x90@'
p146
tp147
Rp148
sbsS'_rshift_cst'
p149
I0
sbag1
(g92
g3
Ntp150
Rp151
(dp152
g86
g1
(g17
g3
Ntp153
Rp154
(dp155
g21
F3.178914388017942e-07
sg22
I0
sg23
g24
sg25
F-0.0019531231373548508
sg26
F0.0009765615686774254
sbsg12
I1
sg13
I20
sg15
Nsg16
g1
(g17
g3
Ntp156
Rp157
(dp158
g21
I0
sg22
I0
sg23
g24
sg25
I0
sg26
I0
sbsg102
g103
sg104
I1
sg105
g1
(g106
g3
Ntp159
Rp160
(dp161
g110
g49
(g53
S'\xa8\xbe\xbf\xe9\x9f\x15\xee\xbf'
p162
tp163
Rp164
sg35
g1
(g36
g3
Ntp165
Rp166
(dp167
g40
I01
sg41
I19
sg42
I-18
sg43
I0
sbsg117
I-246452
sbsg118
S'y1[k]'
p168
sg120
I-9
sg121
g1
(g106
g3
Ntp169
Rp170
(dp171
g110
g164
sg35
g1
(g36
g3
Ntp172
Rp173
(dp174
g40
I01
sg41
I19
sg42
I-18
sg43
I0
sbsg117
I-246452
sbsg73
g1
(g31
g3
Ntp175
Rp176
(dp177
g35
g1
(g36
g3
Ntp178
Rp179
(dp180
g40
I01
sg41
I18
sg42
I-9
sg43
I8
sbsg44
I114080
sg45
I-77979
sg46
S'Var5406'
p181
sg48
g69
sg59
g72
sbsg46
S'Mult_y1[k]'
p182
sg41
I21
sg136
g1
(g31
g3
Ntp183
Rp184
(dp185
g35
g1
(g36
g3
Ntp186
Rp187
(dp188
g40
I01
sg41
I20
sg42
I-11
sg43
I8
sbsg44
I331776
sg45
I-485376
sg46
g168
sg48
g49
(g53
S'\x00\x00\x00\x00\x00\xa0m\xc0'
p189
tp190
Rp191
sg59
g49
(g53
S'\x00\x00\x00\x00\x00@d@'
p192
tp193
Rp194
sbsg149
I0
sbasS'_left'
p195
g94
sbsS'_var_final'
p196
g1
(g31
g3
Ntp197
Rp198
(dp199
g35
g1
(g36
g3
Ntp200
Rp201
(dp202
g40
I01
sg41
I20
sg42
I-8
sg43
I11
sbsg44
I415392
sg45
I-316407
sg46
S'Var5404'
p203
sg48
g80
sg59
g83
sbsS'_rshift_final'
p204
I1
sbag1
(g2
g3
Ntp205
Rp206
(dp207
g7
g1
(g92
g3
Ntp208
Rp209
(dp210
g86
g1
(g17
g3
Ntp211
Rp212
(dp213
g21
F3.178914388017942e-07
sg22
I0
sg23
g24
sg25
F-0.0019531231373548508
sg26
F0.0009765615686774254
sbsg12
I1
sg13
I20
sg15
Nsg16
g1
(g17
g3
Ntp214
Rp215
(dp216
g21
I0
sg22
I0
sg23
g24
sg25
I0
sg26
I0
sbsg102
g103
sg104
I0
sg105
g1
(g106
g3
Ntp217
Rp218
(dp219
g110
g49
(g53
S'u\xcb\xd3r\x00\x9a\xe7?'
p220
tp221
Rp222
sg35
g1
(g36
g3
Ntp223
Rp224
(dp225
g40
I01
sg41
I22
sg42
I-21
sg43
I0
sbsg117
I1546752
sbsg118
S'x2[k]'
p226
sg120
I-9
sg121
g1
(g106
g3
Ntp227
Rp228
(dp229
g110
g222
sg35
g1
(g36
g3
Ntp230
Rp231
(dp232
g40
I01
sg41
I22
sg42
I-21
sg43
I0
sbsg117
I1546752
sbsg73
g1
(g31
g3
Ntp233
Rp234
(dp235
g35
g1
(g36
g3
Ntp236
Rp237
(dp238
g40
I01
sg41
I20
sg42
I-9
sg43
I10
sbsg44
I462210
sg45
I-364860
sg46
S'Var5413'
p239
sg48
g49
(g53
S'\xe7(\xdd\xb9\xeeD\x86\xc0'
p240
tp241
Rp242
sg59
g49
(g53
S'\x12\x862s\t6\x8c@'
p243
tp244
Rp245
sbsg46
S'Mult_x2[k]'
p246
sg41
I20
sg136
g1
(g31
g3
Ntp247
Rp248
(dp249
g35
g1
(g36
g3
Ntp250
Rp251
(dp252
g40
I01
sg41
I20
sg42
I-8
sg43
I11
sbsg44
I313342
sg45
I-247346
sg46
g226
sg48
g49
(g53
S'\xe2\xdfRb\x901\x8e\xc0'
p253
tp254
Rp255
sg59
g49
(g53
S'#y\x05|\xf8\x1f\x93@'
p256
tp257
Rp258
sbsg149
I0
sbsg196
Nsg204
I0
sbag1
(g2
g3
Ntp259
Rp260
(dp261
g7
g1
(g92
g3
Ntp262
Rp263
(dp264
g86
g1
(g17
g3
Ntp265
Rp266
(dp267
g21
F1.2715657552071769e-06
sg22
I0
sg23
g24
sg25
F-0.0039062462747097015
sg26
F0.0019531231373548508
sbsg12
I1
sg13
I20
sg15
Nsg16
g1
(g17
g3
Ntp268
Rp269
(dp270
g21
I0
sg22
I0
sg23
g24
sg25
I0
sg26
I0
sbsg102
g103
sg104
I0
sg105
g1
(g106
g3
Ntp271
Rp272
(dp273
g110
g49
(g53
S'y_\t\x01\xe5\xf9\xe6?'
p274
tp275
Rp276
sg35
g1
(g36
g3
Ntp277
Rp278
(dp279
g40
I01
sg41
I21
sg42
I-20
sg43
I0
sbsg117
I752883
sbsg118
S'x3[k]'
p280
sg120
I-8
sg121
g1
(g106
g3
Ntp281
Rp282
(dp283
g110
g276
sg35
g1
(g36
g3
Ntp284
Rp285
(dp286
g40
I01
sg41
I21
sg42
I-20
sg43
I0
sbsg117
I752883
sbsg73
g1
(g31
g3
Ntp287
Rp288
(dp289
g35
g1
(g36
g3
Ntp290
Rp291
(dp292
g40
I01
sg41
I20
sg42
I-8
sg43
I11
sbsg44
I265838
sg45
I-192356
sg46
S'Var5415'
p293
sg48
g49
(g53
S',\x80&\xb3\x1d{\x87\xc0'
p294
tp295
Rp296
sg59
g49
(g53
S'\xd9\xf6\x12\xd5\xb99\x90@'
p297
tp298
Rp299
sbsg46
S'Mult_x3[k]'
p300
sg41
I20
sg136
g1
(g31
g3
Ntp301
Rp302
(dp303
g35
g1
(g36
g3
Ntp304
Rp305
(dp306
g40
I01
sg41
I20
sg42
I-8
sg43
I11
sbsg44
I370246
sg45
I-267903
sg46
g280
sg48
g49
(g53
S'\xe2\xbc\x94\x8b\xfcY\x90\xc0'
p307
tp308
Rp309
sg59
g49
(g53
S'\xe6;^}\x18\x99\x96@'
p310
tp311
Rp312
sbsg149
I0
sbsg196
Nsg204
I0
sbag1
(g2
g3
Ntp313
Rp314
(dp315
g7
g1
(g92
g3
Ntp316
Rp317
(dp318
g86
g1
(g17
g3
Ntp319
Rp320
(dp321
g21
F1.2715657552071769e-06
sg22
I0
sg23
g24
sg25
F-0.0039062462747097015
sg26
F0.0019531231373548508
sbsg12
I1
sg13
I20
sg15
Nsg16
g1
(g17
g3
Ntp322
Rp323
(dp324
g21
I0
sg22
I0
sg23
g24
sg25
I0
sg26
I0
sbsg102
g103
sg104
I0
sg105
g1
(g106
g3
Ntp325
Rp326
(dp327
g110
g49
(g53
S'\xbf)zgMF\xec?'
p328
tp329
Rp330
sg35
g1
(g36
g3
Ntp331
Rp332
(dp333
g40
I01
sg41
I21
sg42
I-20
sg43
I0
sbsg117
I926503
sbsg118
S'x4[k]'
p334
sg120
I-8
sg121
g1
(g106
g3
Ntp335
Rp336
(dp337
g110
g330
sg35
g1
(g36
g3
Ntp338
Rp339
(dp340
g40
I01
sg41
I21
sg42
I-20
sg43
I0
sbsg117
I926503
sbsg73
g1
(g31
g3
Ntp341
Rp342
(dp343
g35
g1
(g36
g3
Ntp344
Rp345
(dp346
g40
I01
sg41
I20
sg42
I-8
sg43
I11
sbsg44
I345612
sg45
I-236241
sg46
S'Var5417'
p347
sg48
g49
(g53
S'I\x96\\W\x86\xd6\x8c\xc0'
p348
tp349
Rp350
sg59
g49
(g53
S'\xb6\xdf\xb7\x1e.\x18\x95@'
p351
tp352
Rp353
sbsg46
S'Mult_x4[k]'
p354
sg41
I20
sg136
g1
(g31
g3
Ntp355
Rp356
(dp357
g35
g1
(g36
g3
Ntp358
Rp359
(dp360
g40
I01
sg41
I20
sg42
I-8
sg43
I11
sbsg44
I391148
sg45
I-267367
sg46
g334
sg48
g49
(g53
S'\x98\xf0\x1e\xc4\x9cQ\x90\xc0'
p361
tp362
Rp363
sg59
g49
(g53
S'vi\xe11\xb1\xdf\x97@'
p364
tp365
Rp366
sbsg149
I0
sbsg196
Nsg204
I0
sbag1
(g2
g3
Ntp367
Rp368
(dp369
g7
g1
(g92
g3
Ntp370
Rp371
(dp372
g86
g1
(g17
g3
Ntp373
Rp374
(dp375
g21
F3.178914388017942e-07
sg22
I0
sg23
g24
sg25
F-0.0019531231373548508
sg26
F0.0009765615686774254
sbsg12
I1
sg13
I20
sg15
Nsg16
g1
(g17
g3
Ntp376
Rp377
(dp378
g21
I0
sg22
I0
sg23
g24
sg25
I0
sg26
I0
sbsg102
g103
sg104
I0
sg105
g1
(g106
g3
Ntp379
Rp380
(dp381
g110
g49
(g53
S'\xfb1\x06\xdbq\x06\xe7?'
p382
tp383
Rp384
sg35
g1
(g36
g3
Ntp385
Rp386
(dp387
g40
I01
sg41
I22
sg42
I-21
sg43
I0
sbsg117
I1508978
sbsg118
S'x5[k]'
p388
sg120
I-9
sg121
g1
(g106
g3
Ntp389
Rp390
(dp391
g110
g384
sg35
g1
(g36
g3
Ntp392
Rp393
(dp394
g40
I01
sg41
I22
sg42
I-21
sg43
I0
sbsg117
I1508978
sbsg73
g1
(g31
g3
Ntp395
Rp396
(dp397
g35
g1
(g36
g3
Ntp398
Rp399
(dp400
g40
I01
sg41
I20
sg42
I-9
sg43
I10
sbsg44
I503632
sg45
I-359667
sg46
S'Var5419'
p401
sg48
g49
(g53
S'\xe8;=5\xcc\xf3\x85\xc0'
p402
tp403
Rp404
sg59
g49
(g53
S'\x80\x1fX\t>\xbd\x8e@'
p405
tp406
Rp407
sbsg46
S'Mult_x5[k]'
p408
sg41
I20
sg136
g1
(g31
g3
Ntp409
Rp410
(dp411
g35
g1
(g36
g3
Ntp412
Rp413
(dp414
g40
I01
sg41
I20
sg42
I-8
sg43
I11
sbsg44
I349969
sg45
I-249930
sg46
g388
sg48
g49
(g53
S'Y\xfb\x1b\xd6L\x82\x8e\xc0'
p415
tp416
Rp417
sg59
g49
(g53
S'\x9e\x97\x10,E\\\x95@'
p418
tp419
Rp420
sbsg149
I0
sbsg196
Nsg204
I0
sbag1
(g2
g3
Ntp421
Rp422
(dp423
g7
g1
(g92
g3
Ntp424
Rp425
(dp426
g86
g1
(g17
g3
Ntp427
Rp428
(dp429
g21
F3.178914388017942e-07
sg22
I0
sg23
g24
sg25
F-0.0019531231373548508
sg26
F0.0009765615686774254
sbsg12
I1
sg13
I20
sg15
Nsg16
g1
(g17
g3
Ntp430
Rp431
(dp432
g21
I0
sg22
I0
sg23
g24
sg25
I0
sg26
I0
sbsg102
g103
sg104
I0
sg105
g1
(g106
g3
Ntp433
Rp434
(dp435
g110
g49
(g53
S'\xa3\x97\xd7\x8fKk\xe8?'
p436
tp437
Rp438
sg35
g1
(g36
g3
Ntp439
Rp440
(dp441
g40
I01
sg41
I22
sg42
I-21
sg43
I0
sbsg117
I1600332
sbsg118
S'x6[k]'
p442
sg120
I-9
sg121
g1
(g106
g3
Ntp443
Rp444
(dp445
g110
g438
sg35
g1
(g36
g3
Ntp446
Rp447
(dp448
g40
I01
sg41
I22
sg42
I-21
sg43
I0
sbsg117
I1600332
sbsg73
g1
(g31
g3
Ntp449
Rp450
(dp451
g35
g1
(g36
g3
Ntp452
Rp453
(dp454
g40
I01
sg41
I20
sg42
I-9
sg43
I10
sbsg44
I479873
sg45
I-328014
sg46
S'Var5421'
p455
sg48
g49
(g53
S'\xfc2\xe3\xbb8\x05\x84\xc0'
p456
tp457
Rp458
sg59
g49
(g53
S'%\xae4h\x02J\x8d@'
p459
tp460
Rp461
sbsg46
S'Mult_x6[k]'
p462
sg41
I20
sg136
g1
(g31
g3
Ntp463
Rp464
(dp465
g35
g1
(g36
g3
Ntp466
Rp467
(dp468
g40
I01
sg41
I20
sg42
I-8
sg43
I11
sbsg44
I314424
sg45
I-214923
sg46
g442
sg48
g49
(g53
S'\xfb\xd3\x81\xb3V<\x8a\xc0'
p469
tp470
Rp471
sg59
g49
(g53
S'\xba\x85\x02\x9b\xe00\x93@'
p472
tp473
Rp474
sbsg149
I0
sbsg196
Nsg204
I0
sbag1
(g2
g3
Ntp475
Rp476
(dp477
g7
g1
(g92
g3
Ntp478
Rp479
(dp480
g86
g1
(g17
g3
Ntp481
Rp482
(dp483
g21
F3.178914388017942e-07
sg22
I0
sg23
g24
sg25
F-0.0019531231373548508
sg26
F0.0009765615686774254
sbsg12
I1
sg13
I20
sg15
Nsg16
g1
(g17
g3
Ntp484
Rp485
(dp486
g21
I0
sg22
I0
sg23
g24
sg25
I0
sg26
I0
sbsg102
g103
sg104
I0
sg105
g1
(g106
g3
Ntp487
Rp488
(dp489
g110
g49
(g53
S'k\x9b5\xa6\\\\\xe8?'
p490
tp491
Rp492
sg35
g1
(g36
g3
Ntp493
Rp494
(dp495
g40
I01
sg41
I22
sg42
I-21
sg43
I0
sbsg117
I1596509
sbsg118
S'x7[k]'
p496
sg120
I-9
sg121
g1
(g106
g3
Ntp497
Rp498
(dp499
g110
g492
sg35
g1
(g36
g3
Ntp500
Rp501
(dp502
g40
I01
sg41
I22
sg42
I-21
sg43
I0
sbsg117
I1596509
sbsg73
g1
(g31
g3
Ntp503
Rp504
(dp505
g35
g1
(g36
g3
Ntp506
Rp507
(dp508
g40
I01
sg41
I20
sg42
I-9
sg43
I10
sbsg44
I435037
sg45
I-297367
sg46
S'Var5423'
p509
sg48
g49
(g53
S'\xf3\x9d\x11r[&\x82\xc0'
p510
tp511
Rp512
sg59
g49
(g53
S'\x01\x8d\x8b\xd1r\x8d\x8a@'
p513
tp514
Rp515
sbsg46
S'Mult_x7[k]'
p516
sg41
I20
sg136
g1
(g31
g3
Ntp517
Rp518
(dp519
g35
g1
(g36
g3
Ntp520
Rp521
(dp522
g40
I01
sg41
I20
sg42
I-8
sg43
I11
sbsg44
I285729
sg45
I-195309
sg46
g496
sg48
g49
(g53
S'\xe9\xf1\x1f9d\xd7\x87\xc0'
p523
tp524
Rp525
sg59
g49
(g53
S'-\xff\x14\x92\x84p\x91@'
p526
tp527
Rp528
sbsg149
I0
sbsg196
Nsg204
I0
sbag1
(g2
g3
Ntp529
Rp530
(dp531
g7
g1
(g92
g3
Ntp532
Rp533
(dp534
g86
g1
(g17
g3
Ntp535
Rp536
(dp537
g21
F3.178914388017942e-07
sg22
I0
sg23
g24
sg25
F-0.0019531231373548508
sg26
F0.0009765615686774254
sbsg12
I1
sg13
I20
sg15
Nsg16
g1
(g17
g3
Ntp538
Rp539
(dp540
g21
I0
sg22
I0
sg23
g24
sg25
I0
sg26
I0
sbsg102
g103
sg104
I0
sg105
g1
(g106
g3
Ntp541
Rp542
(dp543
g110
g49
(g53
S'7M\xb6bl\xc8\xe0?'
p544
tp545
Rp546
sg35
g1
(g36
g3
Ntp547
Rp548
(dp549
g40
I01
sg41
I22
sg42
I-21
sg43
I0
sbsg117
I1099884
sbsg118
S'x8[k]'
p550
sg120
I-9
sg121
g1
(g106
g3
Ntp551
Rp552
(dp553
g110
g546
sg35
g1
(g36
g3
Ntp554
Rp555
(dp556
g40
I01
sg41
I22
sg42
I-21
sg43
I0
sbsg117
I1099884
sbsg73
g1
(g31
g3
Ntp557
Rp558
(dp559
g35
g1
(g36
g3
Ntp560
Rp561
(dp562
g40
I01
sg41
I20
sg42
I-9
sg43
I10
sbsg44
I318809
sg45
I-217920
sg46
S'Var5425'
p563
sg48
g49
(g53
S'\x8b\x95\xd9\x8d\x00\x9az\xc0'
p564
tp565
Rp566
sg59
g49
(g53
S'k\x9a\xfb\xf5cu\x83@'
p567
tp568
Rp569
sbsg46
S'Mult_x8[k]'
p570
sg41
I20
sg136
g1
(g31
g3
Ntp571
Rp572
(dp573
g35
g1
(g36
g3
Ntp574
Rp575
(dp576
g40
I01
sg41
I20
sg42
I-8
sg43
I11
sbsg44
I303937
sg45
I-207754
sg46
g550
sg48
g49
(g53
S'\t&6\xb8R\\\x89\xc0'
p577
tp578
Rp579
sg59
g49
(g53
S'\xe4us\x9e\x03\x8d\x92@'
p580
tp581
Rp582
sbsg149
I0
sbsg196
Nsg204
I0
sbag1
(g2
g3
Ntp583
Rp584
(dp585
g7
g1
(g8
g3
Ntp586
Rp587
(dp588
g12
Nsg13
(lp589
I0
aI0
asg15
Nsg16
g1
(g17
g3
Ntp590
Rp591
(dp592
g21
F1.5099843343096067e-06
sg22
I0
sg23
g24
sg25
F-0.0068359337747097015
sg26
F0.0034179668873548508
sbsg27
I01
sg28
I1
sg29
(lp593
g1
(g31
g3
Ntp594
Rp595
(dp596
g35
g1
(g36
g3
Ntp597
Rp598
(dp599
g40
I01
sg41
I21
sg42
I-10
sg43
I10
sbsg44
I1194082
sg45
I-938477
sg46
S'Var5518'
p600
sg48
g49
(g53
S'(8R\xd2\xd9\xa3\x8c\xc0'
p601
tp602
Rp603
sg59
g49
(g53
S'\x1a\x8e\xfb\xa7a8\x92@'
p604
tp605
Rp606
sbag1
(g31
g3
Ntp607
Rp608
(dp609
g35
g598
sg44
I459766
sg45
I-471457
sg46
S'Var5519'
p610
sg48
g49
(g53
S'4\xab\xc7\x99\x85\xc6|\xc0'
p611
tp612
Rp613
sg59
g49
(g53
S'\xa9#\x990\xd5\x0f|@'
p614
tp615
Rp616
sbasg73
g1
(g31
g3
Ntp617
Rp618
(dp619
g35
g598
sg44
I1653848
sg45
I-1409934
sg46
S'Var5520'
p620
sg48
g49
(g53
S'\xe1\x06\x9bO\x8e\x83\x95\xc0'
p621
tp622
Rp623
sg59
g49
(g53
S'\x04\xd7!\xf4V<\x99@'
p624
tp625
Rp626
sbsg46
S'Add_1054'
p627
sg85
I1
sg86
g1
(g17
g3
Ntp628
Rp629
(dp630
g21
F1.1920928955078125e-06
sg22
I0
sg23
g24
sg25
F-0.0029296875
sg26
F0.00146484375
sbsg90
(lp631
g1
(g8
g3
Ntp632
Rp633
(dp634
g12
Nsg13
(lp635
I0
aI0
asg15
Nsg16
g1
(g17
g3
Ntp636
Rp637
(dp638
g21
F1.589457194008971e-07
sg22
I0
sg23
g24
sg25
F-0.0019531231373548508
sg26
F0.0009765615686774254
sbsg27
I00
sg28
I1
sg29
(lp639
g1
(g31
g3
Ntp640
Rp641
(dp642
g35
g1
(g36
g3
Ntp643
Rp644
(dp645
g40
I01
sg41
I21
sg42
I-10
sg43
I10
sbsg44
I924421
sg45
I-729719
sg46
S'Var5513'
p646
sg48
g49
(g53
S'\xe7(\xdd\xb9\xeeD\x86\xc0'
p647
tp648
Rp649
sg59
g49
(g53
S'\x11\x862s\t6\x8c@'
p650
tp651
Rp652
sbag1
(g31
g3
Ntp653
Rp654
(dp655
g35
g644
sg44
I269661
sg45
I-208758
sg46
S'Var5514'
p656
sg48
g49
(g53
S'\x04=\xd4a\xac{i\xc0'
p657
tp658
Rp659
sg59
g49
(g53
S'F,\x89\xb9sup@'
p660
tp661
Rp662
sbasg73
g1
(g31
g3
Ntp663
Rp664
(dp665
g35
g644
sg44
I1194082
sg45
I-938477
sg46
S'Var5515'
p666
sg48
g603
sg59
g606
sbsg46
S'Add_1053'
p667
sg85
I1
sg86
g1
(g17
g3
Ntp668
Rp669
(dp670
g21
I0
sg22
I0
sg23
g24
sg25
I0
sg26
I0
sbsg90
(lp671
g1
(g92
g3
Ntp672
Rp673
(dp674
g86
g1
(g17
g3
Ntp675
Rp676
(dp677
g21
F7.947285970044855e-08
sg22
I0
sg23
g24
sg25
F-0.0009765615686774254
sg26
F0.0004882807843387127
sbsg12
I1
sg13
I20
sg15
Nsg16
g1
(g17
g3
Ntp678
Rp679
(dp680
g21
I0
sg22
I0
sg23
g24
sg25
I0
sg26
I0
sbsg102
g103
sg104
I1
sg105
g1
(g106
g3
Ntp681
Rp682
(dp683
g110
g49
(g53
S'\x00\x00\x00\x00\x00\x00\xf0?'
p684
tp685
Rp686
sg35
g1
(g36
g3
Ntp687
Rp688
(dp689
g40
I01
sg41
I23
sg42
I-21
sg43
I1
sbsg117
I2097152
sbsg118
S't2[k+1]'
p690
sg120
I-10
sg121
g1
(g106
g3
Ntp691
Rp692
(dp693
g110
g686
sg35
g1
(g36
g3
Ntp694
Rp695
(dp696
g40
I01
sg41
I23
sg42
I-21
sg43
I1
sbsg117
I2097152
sbsg73
g1
(g31
g3
Ntp697
Rp698
(dp699
g35
g1
(g36
g3
Ntp700
Rp701
(dp702
g40
I01
sg41
I21
sg42
I-10
sg43
I10
sbsg44
I924421
sg45
I-729719
sg46
S'Var5428'
p703
sg48
g649
sg59
g652
sbsg46
S'Mult_t2[k+1]'
p704
sg41
I22
sg136
g1
(g31
g3
Ntp705
Rp706
(dp707
g35
g1
(g36
g3
Ntp708
Rp709
(dp710
g40
I01
sg41
I20
sg42
I-9
sg43
I10
sbsg44
I462210
sg45
I-364860
sg46
g690
sg48
g49
(g53
S'\xe7(\xdd\xb9\xeeD\x86\xc0'
p711
tp712
Rp713
sg59
g49
(g53
S'\x11\x862s\t6\x8c@'
p714
tp715
Rp716
sbsg149
I0
sbag1
(g92
g3
Ntp717
Rp718
(dp719
g86
g1
(g17
g3
Ntp720
Rp721
(dp722
g21
F7.947285970044855e-08
sg22
I0
sg23
g24
sg25
F-0.0009765615686774254
sg26
F0.0004882807843387127
sbsg12
I1
sg13
I20
sg15
Nsg16
g1
(g17
g3
Ntp723
Rp724
(dp725
g21
I0
sg22
I0
sg23
g24
sg25
I0
sg26
I0
sbsg102
g103
sg104
I2
sg105
g1
(g106
g3
Ntp726
Rp727
(dp728
g110
g49
(g53
S'\xa6}\x8dE\xf4\xf5\xcf?'
p729
tp730
Rp731
sg35
g1
(g36
g3
Ntp732
Rp733
(dp734
g40
I01
sg41
I21
sg42
I-22
sg43
I-2
sbsg117
I1047290
sbsg118
g119
sg120
I-10
sg121
g1
(g106
g3
Ntp735
Rp736
(dp737
g110
g731
sg35
g1
(g36
g3
Ntp738
Rp739
(dp740
g40
I01
sg41
I21
sg42
I-22
sg43
I-2
sbsg117
I1047290
sbsg73
g1
(g31
g3
Ntp741
Rp742
(dp743
g35
g1
(g36
g3
Ntp744
Rp745
(dp746
g40
I01
sg41
I20
sg42
I-10
sg43
I9
sbsg44
I269661
sg45
I-208758
sg46
S'Var5429'
p747
sg48
g659
sg59
g662
sbsg46
S'Mult_x1[k]'
p748
sg41
I22
sg136
g1
(g31
g3
Ntp749
Rp750
(dp751
g35
g1
(g36
g3
Ntp752
Rp753
(dp754
g40
I01
sg41
I20
sg42
I-8
sg43
I11
sbsg44
I269992
sg45
I-209014
sg46
g119
sg48
g49
(g53
S'\xdb\xd0g\xe2\xae\x83\x89\xc0'
p755
tp756
Rp757
sg59
g49
(g53
S'\x91\xb8\xba\x15\xa0z\x90@'
p758
tp759
Rp760
sbsg149
I0
sbasg195
g673
sbag1
(g8
g3
Ntp761
Rp762
(dp763
g12
Nsg13
(lp764
I0
aI0
asg15
Nsg16
g1
(g17
g3
Ntp765
Rp766
(dp767
g21
F1.589457194008971e-07
sg22
I0
sg23
g24
sg25
F-0.0019531231373548508
sg26
F0.0009765615686774254
sbsg27
I00
sg28
I1
sg29
(lp768
g1
(g31
g3
Ntp769
Rp770
(dp771
g35
g1
(g36
g3
Ntp772
Rp773
(dp774
g40
I01
sg41
I20
sg42
I-10
sg43
I9
sbsg44
I249783
sg45
I-327925
sg46
S'Var5448'
p775
sg48
g49
(g53
S'|p\x88\x11\xd4\x03t\xc0'
p776
tp777
Rp778
sg59
g49
(g53
S'r\xc1\x82\xe5\xb5}n@'
p779
tp780
Rp781
sbag1
(g31
g3
Ntp782
Rp783
(dp784
g35
g773
sg44
I209983
sg45
I-143532
sg46
S'Var5449'
p785
sg48
g49
(g53
S'ou~\x10c\x85a\xc0'
p786
tp787
Rp788
sg59
g49
(g53
S'\xe0\x85\xaf{\xf4\xa1i@'
p789
tp790
Rp791
sbasg73
g1
(g31
g3
Ntp792
Rp793
(dp794
g35
g773
sg44
I459766
sg45
I-471457
sg46
S'Var5450'
p795
sg48
g613
sg59
g616
sbsg46
S'Add_1040'
p796
sg85
I1
sg86
g1
(g17
g3
Ntp797
Rp798
(dp799
g21
I0
sg22
I0
sg23
g24
sg25
I0
sg26
I0
sbsg90
(lp800
g1
(g92
g3
Ntp801
Rp802
(dp803
g86
g1
(g17
g3
Ntp804
Rp805
(dp806
g21
F7.947285970044855e-08
sg22
I0
sg23
g24
sg25
F-0.0009765615686774254
sg26
F0.0004882807843387127
sbsg12
I1
sg13
I20
sg15
Nsg16
g1
(g17
g3
Ntp807
Rp808
(dp809
g21
I0
sg22
I0
sg23
g24
sg25
I0
sg26
I0
sbsg102
g103
sg104
I0
sg105
g1
(g106
g3
Ntp810
Rp811
(dp812
g110
g49
(g53
S'\xc0\xca\xf3\xb0\rC\xc9\xbf'
p813
tp814
Rp815
sg35
g1
(g36
g3
Ntp816
Rp817
(dp818
g40
I01
sg41
I21
sg42
I-22
sg43
I-2
sbsg117
I-827783
sbsg118
S't1[k+1]'
p819
sg120
I-10
sg121
g1
(g106
g3
Ntp820
Rp821
(dp822
g110
g815
sg35
g1
(g36
g3
Ntp823
Rp824
(dp825
g40
I01
sg41
I21
sg42
I-22
sg43
I-2
sbsg117
I-827783
sbsg73
g1
(g31
g3
Ntp826
Rp827
(dp828
g35
g1
(g36
g3
Ntp829
Rp830
(dp831
g40
I01
sg41
I20
sg42
I-10
sg43
I9
sbsg44
I249783
sg45
I-327925
sg46
S'Var5427'
p832
sg48
g778
sg59
g781
sbsg46
S'Mult_t1[k+1]'
p833
sg41
I22
sg136
g1
(g31
g3
Ntp834
Rp835
(dp836
g35
g1
(g36
g3
Ntp837
Rp838
(dp839
g40
I01
sg41
I20
sg42
I-8
sg43
I11
sbsg44
I415392
sg45
I-316407
sg46
g819
sg48
g49
(g53
S'S\x17\xee\x7f\xdbO\x93\xc0'
p840
tp841
Rp842
sg59
g49
(g53
S'\xf9$\x95\xaa\x7fZ\x99@'
p843
tp844
Rp845
sbsg149
I0
sbag1
(g92
g3
Ntp846
Rp847
(dp848
g86
g1
(g17
g3
Ntp849
Rp850
(dp851
g21
F7.947285970044855e-08
sg22
I0
sg23
g24
sg25
F-0.0009765615686774254
sg26
F0.0004882807843387127
sbsg12
I1
sg13
I20
sg15
Nsg16
g1
(g17
g3
Ntp852
Rp853
(dp854
g21
I0
sg22
I0
sg23
g24
sg25
I0
sg26
I0
sbsg102
g103
sg104
I3
sg105
g1
(g106
g3
Ntp855
Rp856
(dp857
g110
g49
(g53
S'j\xb6\xb1\xd7\x04\xb0\xeb\xbf'
p858
tp859
Rp860
sg35
g1
(g36
g3
Ntp861
Rp862
(dp863
g40
I01
sg41
I20
sg42
I-19
sg43
I0
sbsg117
I-453633
sbsg118
g168
sg120
I-10
sg121
g1
(g106
g3
Ntp864
Rp865
(dp866
g110
g860
sg35
g1
(g36
g3
Ntp867
Rp868
(dp869
g40
I01
sg41
I20
sg42
I-19
sg43
I0
sbsg117
I-453633
sbsg73
g1
(g31
g3
Ntp870
Rp871
(dp872
g35
g1
(g36
g3
Ntp873
Rp874
(dp875
g40
I01
sg41
I19
sg42
I-10
sg43
I8
sbsg44
I209983
sg45
I-143532
sg46
S'Var5430'
p876
sg48
g788
sg59
g791
sbsg46
S'Mult_y1[k]'
p877
sg41
I22
sg136
g1
(g31
g3
Ntp878
Rp879
(dp880
g35
g1
(g36
g3
Ntp881
Rp882
(dp883
g40
I01
sg41
I20
sg42
I-11
sg43
I8
sbsg44
I331776
sg45
I-485376
sg46
g168
sg48
g49
(g53
S'\x00\x00\x00\x00\x00\xa0m\xc0'
p884
tp885
Rp886
sg59
g49
(g53
S'\x00\x00\x00\x00\x00@d@'
p887
tp888
Rp889
sbsg149
I0
sbasg195
g802
sbasg195
g673
sbsg196
g1
(g31
g3
Ntp890
Rp891
(dp892
g35
g1
(g36
g3
Ntp893
Rp894
(dp895
g40
I01
sg41
I20
sg42
I-8
sg43
I11
sbsg44
I413462
sg45
I-352484
sg46
S'Var5426'
p896
sg48
g49
(g53
S'\xe0\x06\x9bO\x8e\x83\x95\xc0'
p897
tp898
Rp899
sg59
g49
(g53
S'\x04\xd7!\xf4V<\x99@'
p900
tp901
Rp902
sbsg204
I2
sbag1
(g2
g3
Ntp903
Rp904
(dp905
g7
g1
(g8
g3
Ntp906
Rp907
(dp908
g12
Nsg13
(lp909
I0
aI0
asg15
Nsg16
g1
(g17
g3
Ntp910
Rp911
(dp912
g21
F1.5099843343085903e-06
sg22
I0
sg23
g24
sg25
F-0.006835931679233909
sg26
F0.0034179658396169543
sbsg27
I01
sg28
I1
sg29
(lp913
g1
(g31
g3
Ntp914
Rp915
(dp916
g35
g1
(g36
g3
Ntp917
Rp918
(dp919
g40
I01
sg41
I22
sg42
I-10
sg43
I11
sbsg44
I1566666
sg45
I-1216081
sg46
S'Var5703'
p920
sg48
g49
(g53
S'\x02[b\xb1P\x8e\x92\xc0'
p921
tp922
Rp923
sg59
g49
(g53
S'\xc8c]l\xca\xe7\x97@'
p924
tp925
Rp926
sbag1
(g31
g3
Ntp927
Rp928
(dp929
g35
g918
sg44
I344246
sg45
I-451971
sg46
S'Var5704'
p930
sg48
g49
(g53
S'0\x96\x94\xde\t\x96{\xc0'
p931
tp932
Rp933
sg59
g49
(g53
S'\x8c\x06\x1b[\xd6\x02u@'
p934
tp935
Rp936
sbasg73
g1
(g31
g3
Ntp937
Rp938
(dp939
g35
g918
sg44
I1910912
sg45
I-1668052
sg46
S'Var5705'
p940
sg48
g49
(g53
S'\x8e\x80\x07)\xd3s\x99\xc0'
p941
tp942
Rp943
sg59
g49
(g53
S'k%$\x03\x80(\x9d@'
p944
tp945
Rp946
sbsg46
S'Add_1090'
p947
sg85
I1
sg86
g1
(g17
g3
Ntp948
Rp949
(dp950
g21
F1.1920928955078125e-06
sg22
I0
sg23
g24
sg25
F-0.0029296875
sg26
F0.00146484375
sbsg90
(lp951
g1
(g8
g3
Ntp952
Rp953
(dp954
g12
Nsg13
(lp955
I0
aI0
asg15
Nsg16
g1
(g17
g3
Ntp956
Rp957
(dp958
g21
F1.5894571939988067e-07
sg22
I0
sg23
g24
sg25
F-0.0019531210418790579
sg26
F0.0009765605209395289
sbsg27
I00
sg28
I1
sg29
(lp959
g1
(g31
g3
Ntp960
Rp961
(dp962
g35
g1
(g36
g3
Ntp963
Rp964
(dp965
g40
I01
sg41
I22
sg42
I-10
sg43
I11
sbsg44
I313298
sg45
I-226697
sg46
S'Var5698'
p966
sg48
g49
(g53
S'\x8cX\xc7\x01D\xack\xc0'
p967
tp968
Rp969
sg59
g49
(g53
S'\x96\xaa_\xc1G\x1fs@'
p970
tp971
Rp972
sbag1
(g31
g3
Ntp973
Rp974
(dp975
g35
g964
sg44
I1253368
sg45
I-989384
sg46
S'Var5699'
p976
sg48
g49
(g53
S'\xe2\xdfRb\x901\x8e\xc0'
p977
tp978
Rp979
sg59
g49
(g53
S'#y\x05|\xf8\x1f\x93@'
p980
tp981
Rp982
sbasg73
g1
(g31
g3
Ntp983
Rp984
(dp985
g35
g964
sg44
I1566666
sg45
I-1216081
sg46
S'Var5700'
p986
sg48
g923
sg59
g926
sbsg46
S'Add_1089'
p987
sg85
I1
sg86
g1
(g17
g3
Ntp988
Rp989
(dp990
g21
I0
sg22
I0
sg23
g24
sg25
I0
sg26
I0
sbsg90
(lp991
g1
(g92
g3
Ntp992
Rp993
(dp994
g86
g1
(g17
g3
Ntp995
Rp996
(dp997
g21
F7.947285970051632e-08
sg22
I0
sg23
g24
sg25
F-0.0009765622671693563
sg26
F0.0004882811335846782
sbsg12
I1
sg13
I22
sg15
Nsg16
g1
(g17
g3
Ntp998
Rp999
(dp1000
g21
I0
sg22
I0
sg23
g24
sg25
I0
sg26
I0
sbsg102
g103
sg104
I1
sg105
g1
(g106
g3
Ntp1001
Rp1002
(dp1003
g110
g49
(g53
S'\xa0O\\\xac?\xdb\xd2?'
p1004
tp1005
Rp1006
sg35
g1
(g36
g3
Ntp1007
Rp1008
(dp1009
g40
I01
sg41
I24
sg42
I-24
sg43
I-1
sbsg117
I4943103
sbsg118
S't3[k+1]'
p1010
sg120
I-10
sg121
g1
(g106
g3
Ntp1011
Rp1012
(dp1013
g110
g1006
sg35
g1
(g36
g3
Ntp1014
Rp1015
(dp1016
g40
I01
sg41
I24
sg42
I-24
sg43
I-1
sbsg117
I4943103
sbsg73
g1
(g31
g3
Ntp1017
Rp1018
(dp1019
g35
g1
(g36
g3
Ntp1020
Rp1021
(dp1022
g40
I01
sg41
I20
sg42
I-10
sg43
I9
sbsg44
I313298
sg45
I-226697
sg46
S'Var5613'
p1023
sg48
g969
sg59
g972
sbsg46
S'Mult_t3[k+1]'
p1024
sg41
I22
sg136
g1
(g31
g3
Ntp1025
Rp1026
(dp1027
g35
g1
(g36
g3
Ntp1028
Rp1029
(dp1030
g40
I01
sg41
I20
sg42
I-8
sg43
I11
sbsg44
I265838
sg45
I-192356
sg46
g1010
sg48
g49
(g53
S'\x1c\x80&\xb3\x1d{\x87\xc0'
p1031
tp1032
Rp1033
sg59
g49
(g53
S'\xd1\xf6\x12\xd5\xb99\x90@'
p1034
tp1035
Rp1036
sbsg149
I0
sbag1
(g92
g3
Ntp1037
Rp1038
(dp1039
g86
g1
(g17
g3
Ntp1040
Rp1041
(dp1042
g21
F7.947285969936435e-08
sg22
I0
sg23
g24
sg25
F-0.0009765587747097015
sg26
F0.00048827938735485077
sbsg12
I1
sg13
I18
sg15
Nsg16
g1
(g17
g3
Ntp1043
Rp1044
(dp1045
g21
I0
sg22
I0
sg23
g24
sg25
I0
sg26
I0
sbsg102
g103
sg104
I2
sg105
g1
(g106
g3
Ntp1046
Rp1047
(dp1048
g110
g49
(g53
S'\x00\x00\x00\x00\x00\x00\xf0?'
p1049
tp1050
Rp1051
sg35
g1
(g36
g3
Ntp1052
Rp1053
(dp1054
g40
I01
sg41
I22
sg42
I-20
sg43
I1
sbsg117
I1048576
sbsg118
g226
sg120
I-10
sg121
g1
(g106
g3
Ntp1055
Rp1056
(dp1057
g110
g1051
sg35
g1
(g36
g3
Ntp1058
Rp1059
(dp1060
g40
I01
sg41
I22
sg42
I-20
sg43
I1
sbsg117
I1048576
sbsg73
g1
(g31
g3
Ntp1061
Rp1062
(dp1063
g35
g1
(g36
g3
Ntp1064
Rp1065
(dp1066
g40
I01
sg41
I22
sg42
I-10
sg43
I11
sbsg44
I1253368
sg45
I-989384
sg46
S'Var5614'
p1067
sg48
g979
sg59
g982
sbsg46
S'Mult_x2[k]'
p1068
sg41
I22
sg136
g1
(g31
g3
Ntp1069
Rp1070
(dp1071
g35
g1
(g36
g3
Ntp1072
Rp1073
(dp1074
g40
I01
sg41
I20
sg42
I-8
sg43
I11
sbsg44
I313342
sg45
I-247346
sg46
g226
sg48
g49
(g53
S'\xe2\xdfRb\x901\x8e\xc0'
p1075
tp1076
Rp1077
sg59
g49
(g53
S'#y\x05|\xf8\x1f\x93@'
p1078
tp1079
Rp1080
sbsg149
I0
sbasg195
g993
sbag1
(g8
g3
Ntp1081
Rp1082
(dp1083
g12
Nsg13
(lp1084
I0
aI0
asg15
Nsg16
g1
(g17
g3
Ntp1085
Rp1086
(dp1087
g21
F1.589457194008971e-07
sg22
I0
sg23
g24
sg25
F-0.0019531231373548508
sg26
F0.0009765615686774254
sbsg27
I00
sg28
I1
sg29
(lp1088
g1
(g31
g3
Ntp1089
Rp1090
(dp1091
g35
g1
(g36
g3
Ntp1092
Rp1093
(dp1094
g40
I01
sg41
I20
sg42
I-10
sg43
I9
sbsg44
I344041
sg45
I-451671
sg46
S'Var5633'
p1095
sg48
g49
(g53
S'\x816xa[\x91{\xc0'
p1096
tp1097
Rp1098
sg59
g49
(g53
S'\xf7V\xc0"\xa3\xfft@'
p1099
tp1100
Rp1101
sbag1
(g31
g3
Ntp1102
Rp1103
(dp1104
g35
g1093
sg44
I205
sg45
I-300
sg46
S'Var5634'
p1105
sg48
g49
(g53
S'\xa0\xbd~q\xf4\xb9\xd2\xbf'
p1106
tp1107
Rp1108
sg59
g49
(g53
S'\x80\xa8|\xd5\xc2\x99\xc9?'
p1109
tp1110
Rp1111
sbasg73
g1
(g31
g3
Ntp1112
Rp1113
(dp1114
g35
g1093
sg44
I344246
sg45
I-451971
sg46
S'Var5635'
p1115
sg48
g933
sg59
g936
sbsg46
S'Add_1076'
p1116
sg85
I1
sg86
g1
(g17
g3
Ntp1117
Rp1118
(dp1119
g21
I0
sg22
I0
sg23
g24
sg25
I0
sg26
I0
sbsg90
(lp1120
g1
(g92
g3
Ntp1121
Rp1122
(dp1123
g86
g1
(g17
g3
Ntp1124
Rp1125
(dp1126
g21
F7.947285970044855e-08
sg22
I0
sg23
g24
sg25
F-0.0009765615686774254
sg26
F0.0004882807843387127
sbsg12
I1
sg13
I20
sg15
Nsg16
g1
(g17
g3
Ntp1127
Rp1128
(dp1129
g21
I0
sg22
I0
sg23
g24
sg25
I0
sg26
I0
sbsg102
g103
sg104
I0
sg105
g1
(g106
g3
Ntp1130
Rp1131
(dp1132
g110
g49
(g53
S'\x10\x81\x1d\x17\xbbe\xd1\xbf'
p1133
tp1134
Rp1135
sg35
g1
(g36
g3
Ntp1136
Rp1137
(dp1138
g40
I01
sg41
I22
sg42
I-22
sg43
I-1
sbsg117
I-1140155
sbsg118
g819
sg120
I-10
sg121
g1
(g106
g3
Ntp1139
Rp1140
(dp1141
g110
g1135
sg35
g1
(g36
g3
Ntp1142
Rp1143
(dp1144
g40
I01
sg41
I22
sg42
I-22
sg43
I-1
sbsg117
I-1140155
sbsg73
g1
(g31
g3
Ntp1145
Rp1146
(dp1147
g35
g1
(g36
g3
Ntp1148
Rp1149
(dp1150
g40
I01
sg41
I20
sg42
I-10
sg43
I9
sbsg44
I344041
sg45
I-451671
sg46
S'Var5612'
p1151
sg48
g1098
sg59
g1101
sbsg46
S'Mult_t1[k+1]'
p1152
sg41
I22
sg136
g1
(g31
g3
Ntp1153
Rp1154
(dp1155
g35
g1
(g36
g3
Ntp1156
Rp1157
(dp1158
g40
I01
sg41
I20
sg42
I-8
sg43
I11
sbsg44
I415392
sg45
I-316407
sg46
g819
sg48
g49
(g53
S'S\x17\xee\x7f\xdbO\x93\xc0'
p1159
tp1160
Rp1161
sg59
g49
(g53
S'\xf9$\x95\xaa\x7fZ\x99@'
p1162
tp1163
Rp1164
sbsg149
I0
sbag1
(g92
g3
Ntp1165
Rp1166
(dp1167
g86
g1
(g17
g3
Ntp1168
Rp1169
(dp1170
g21
F7.947285970044855e-08
sg22
I0
sg23
g24
sg25
F-0.0009765615686774254
sg26
F0.0004882807843387127
sbsg12
I1
sg13
I20
sg15
Nsg16
g1
(g17
g3
Ntp1171
Rp1172
(dp1173
g21
I0
sg22
I0
sg23
g24
sg25
I0
sg26
I0
sbsg102
g103
sg104
I3
sg105
g1
(g106
g3
Ntp1174
Rp1175
(dp1176
g110
g49
(g53
S'\x00  \xc5G:T?'
p1177
tp1178
Rp1179
sg35
g1
(g36
g3
Ntp1180
Rp1181
(dp1182
g40
I01
sg41
I11
sg42
I-19
sg43
I-9
sbsg117
I647
sbsg118
g168
sg120
I-10
sg121
g1
(g106
g3
Ntp1183
Rp1184
(dp1185
g110
g1179
sg35
g1
(g36
g3
Ntp1186
Rp1187
(dp1188
g40
I01
sg41
I11
sg42
I-19
sg43
I-9
sbsg117
I647
sbsg73
g1
(g31
g3
Ntp1189
Rp1190
(dp1191
g35
g1
(g36
g3
Ntp1192
Rp1193
(dp1194
g40
I01
sg41
I10
sg42
I-10
sg43
I-1
sbsg44
I205
sg45
I-300
sg46
S'Var5615'
p1195
sg48
g1108
sg59
g1111
sbsg46
S'Mult_y1[k]'
p1196
sg41
I22
sg136
g1
(g31
g3
Ntp1197
Rp1198
(dp1199
g35
g1
(g36
g3
Ntp1200
Rp1201
(dp1202
g40
I01
sg41
I20
sg42
I-11
sg43
I8
sbsg44
I331776
sg45
I-485376
sg46
g168
sg48
g49
(g53
S'\x00\x00\x00\x00\x00\xa0m\xc0'
p1203
tp1204
Rp1205
sg59
g49
(g53
S'\x00\x00\x00\x00\x00@d@'
p1206
tp1207
Rp1208
sbsg149
I0
sbasg195
g1122
sbasg195
g993
sbsg196
g1
(g31
g3
Ntp1209
Rp1210
(dp1211
g35
g1
(g36
g3
Ntp1212
Rp1213
(dp1214
g40
I01
sg41
I20
sg42
I-8
sg43
I11
sbsg44
I477728
sg45
I-417013
sg46
S'Var5611'
p1215
sg48
g49
(g53
S'\x8f\x80\x07)\xd3s\x99\xc0'
p1216
tp1217
Rp1218
sg59
g49
(g53
S'k%$\x03\x80(\x9d@'
p1219
tp1220
Rp1221
sbsg204
I2
sbag1
(g2
g3
Ntp1222
Rp1223
(dp1224
g7
g1
(g8
g3
Ntp1225
Rp1226
(dp1227
g12
Nsg13
(lp1228
I0
aI0
asg15
Nsg16
g1
(g17
g3
Ntp1229
Rp1230
(dp1231
g21
F1.5099843343051242e-06
sg22
I0
sg23
g24
sg25
F-0.006835928070358932
sg26
F0.003417964035179466
sbsg27
I01
sg28
I1
sg29
(lp1232
g1
(g31
g3
Ntp1233
Rp1234
(dp1235
g35
g1
(g36
g3
Ntp1236
Rp1237
(dp1238
g40
I01
sg41
I20
sg42
I-10
sg43
I9
sbsg44
I622132
sg45
I-436412
sg46
S'Var5888'
p1239
sg48
g49
(g53
S'\xfc~\xb5@\xed\xa2z\xc0'
p1240
tp1241
Rp1242
sg59
g49
(g53
S'\xe2\xf3\xbaPg\xfc\x82@'
p1243
tp1244
Rp1245
sbag1
(g31
g3
Ntp1246
Rp1247
(dp1248
g35
g1237
sg44
I440972
sg45
I-603829
sg46
S'Var5889'
p1249
sg48
g49
(g53
S'W\xce\xeb\xccim\x82\xc0'
p1250
tp1251
Rp1252
sg59
g49
(g53
S'\xd2[_\x03.\xeaz@'
p1253
tp1254
Rp1255
sbasg73
g1
(g31
g3
Ntp1256
Rp1257
(dp1258
g35
g1237
sg44
I1063104
sg45
I-1040241
sg46
S'Var5890'
p1259
sg48
g49
(g53
S'\xd5\x8dFm\xe0\xbe\x8f\xc0'
p1260
tp1261
Rp1262
sg59
g49
(g53
S'\xe6P5)\xbf8\x90@'
p1263
tp1264
Rp1265
sbsg46
S'Add_1126'
p1266
sg85
I1
sg86
g1
(g17
g3
Ntp1267
Rp1268
(dp1269
g21
F1.1920928955078125e-06
sg22
I0
sg23
g24
sg25
F-0.0029296875
sg26
F0.00146484375
sbsg90
(lp1270
g1
(g8
g3
Ntp1271
Rp1272
(dp1273
g12
Nsg13
(lp1274
I0
aI0
asg15
Nsg16
g1
(g17
g3
Ntp1275
Rp1276
(dp1277
g21
F1.5894571940096826e-07
sg22
I0
sg23
g24
sg25
F-0.0019531239522621036
sg26
F0.0009765619761310518
sbsg27
I00
sg28
I1
sg29
(lp1278
g1
(g31
g3
Ntp1279
Rp1280
(dp1281
g35
g1
(g36
g3
Ntp1282
Rp1283
(dp1284
g40
I01
sg41
I20
sg42
I-10
sg43
I9
sbsg44
I343470
sg45
I-234777
sg46
S'Var5883'
p1285
sg48
g49
(g53
S'\xfe\x83\x1a\xff\xc5\xa8l\xc0'
p1286
tp1287
Rp1288
sg59
g49
(g53
S'\x85\xf3\xb6\xc1\xb6\xf6t@'
p1289
tp1290
Rp1291
sbag1
(g31
g3
Ntp1292
Rp1293
(dp1294
g35
g1283
sg44
I278662
sg45
I-201635
sg46
S'Var5884'
p1295
sg48
g49
(g53
S'\xfayP\x82\x14\x9dh\xc0'
p1296
tp1297
Rp1298
sg59
g49
(g53
S'?\xf4\xbe\xdf\x17\x02q@'
p1299
tp1300
Rp1301
sbasg73
g1
(g31
g3
Ntp1302
Rp1303
(dp1304
g35
g1283
sg44
I622132
sg45
I-436412
sg46
S'Var5885'
p1305
sg48
g1242
sg59
g1245
sbsg46
S'Add_1125'
p1306
sg85
I1
sg86
g1
(g17
g3
Ntp1307
Rp1308
(dp1309
g21
I0
sg22
I0
sg23
g24
sg25
I0
sg26
I0
sbsg90
(lp1310
g1
(g92
g3
Ntp1311
Rp1312
(dp1313
g86
g1
(g17
g3
Ntp1314
Rp1315
(dp1316
g21
F7.94728597005197e-08
sg22
I0
sg23
g24
sg25
F-0.0009765623835846782
sg26
F0.0004882811917923391
sbsg12
I1
sg13
I23
sg15
Nsg16
g1
(g17
g3
Ntp1317
Rp1318
(dp1319
g21
I0
sg22
I0
sg23
g24
sg25
I0
sg26
I0
sbsg102
g103
sg104
I1
sg105
g1
(g106
g3
Ntp1320
Rp1321
(dp1322
g110
g49
(g53
S'\x0c=\x19m;\xcd\xcf?'
p1323
tp1324
Rp1325
sg35
g1
(g36
g3
Ntp1326
Rp1327
(dp1328
g40
I01
sg41
I24
sg42
I-25
sg43
I-2
sbsg117
I8336622
sbsg118
S't4[k+1]'
p1329
sg120
I-10
sg121
g1
(g106
g3
Ntp1330
Rp1331
(dp1332
g110
g1325
sg35
g1
(g36
g3
Ntp1333
Rp1334
(dp1335
g40
I01
sg41
I24
sg42
I-25
sg43
I-2
sbsg117
I8336622
sbsg73
g1
(g31
g3
Ntp1336
Rp1337
(dp1338
g35
g1
(g36
g3
Ntp1339
Rp1340
(dp1341
g40
I01
sg41
I20
sg42
I-10
sg43
I9
sbsg44
I343470
sg45
I-234777
sg46
S'Var5798'
p1342
sg48
g1288
sg59
g1291
sbsg46
S'Mult_t4[k+1]'
p1343
sg41
I22
sg136
g1
(g31
g3
Ntp1344
Rp1345
(dp1346
g35
g1
(g36
g3
Ntp1347
Rp1348
(dp1349
g40
I01
sg41
I20
sg42
I-8
sg43
I11
sbsg44
I345612
sg45
I-236241
sg46
g1329
sg48
g49
(g53
S'D\x96\\W\x86\xd6\x8c\xc0'
p1350
tp1351
Rp1352
sg59
g49
(g53
S'\xb4\xdf\xb7\x1e.\x18\x95@'
p1353
tp1354
Rp1355
sbsg149
I0
sbag1
(g92
g3
Ntp1356
Rp1357
(dp1358
g86
g1
(g17
g3
Ntp1359
Rp1360
(dp1361
g21
F7.947285970044855e-08
sg22
I0
sg23
g24
sg25
F-0.0009765615686774254
sg26
F0.0004882807843387127
sbsg12
I1
sg13
I20
sg15
Nsg16
g1
(g17
g3
Ntp1362
Rp1363
(dp1364
g21
I0
sg22
I0
sg23
g24
sg25
I0
sg26
I0
sbsg102
g103
sg104
I2
sg105
g1
(g106
g3
Ntp1365
Rp1366
(dp1367
g110
g49
(g53
S'\x02\xcb;\x11\xa0\x15\xc8?'
p1368
tp1369
Rp1370
sg35
g1
(g36
g3
Ntp1371
Rp1372
(dp1373
g40
I01
sg41
I21
sg42
I-22
sg43
I-2
sbsg117
I789200
sbsg118
g280
sg120
I-10
sg121
g1
(g106
g3
Ntp1374
Rp1375
(dp1376
g110
g1370
sg35
g1
(g36
g3
Ntp1377
Rp1378
(dp1379
g40
I01
sg41
I21
sg42
I-22
sg43
I-2
sbsg117
I789200
sbsg73
g1
(g31
g3
Ntp1380
Rp1381
(dp1382
g35
g1
(g36
g3
Ntp1383
Rp1384
(dp1385
g40
I01
sg41
I20
sg42
I-10
sg43
I9
sbsg44
I278662
sg45
I-201635
sg46
S'Var5799'
p1386
sg48
g1298
sg59
g1301
sbsg46
S'Mult_x3[k]'
p1387
sg41
I22
sg136
g1
(g31
g3
Ntp1388
Rp1389
(dp1390
g35
g1
(g36
g3
Ntp1391
Rp1392
(dp1393
g40
I01
sg41
I20
sg42
I-8
sg43
I11
sbsg44
I370246
sg45
I-267903
sg46
g280
sg48
g49
(g53
S'\xe2\xbc\x94\x8b\xfcY\x90\xc0'
p1394
tp1395
Rp1396
sg59
g49
(g53
S'\xe6;^}\x18\x99\x96@'
p1397
tp1398
Rp1399
sbsg149
I0
sbasg195
g1312
sbag1
(g8
g3
Ntp1400
Rp1401
(dp1402
g12
Nsg13
(lp1403
I0
aI0
asg15
Nsg16
g1
(g17
g3
Ntp1404
Rp1405
(dp1406
g21
F1.5894571939634346e-07
sg22
I0
sg23
g24
sg25
F-0.0019531166180968285
sg26
F0.0009765583090484142
sbsg27
I00
sg28
I1
sg29
(lp1407
g1
(g31
g3
Ntp1408
Rp1409
(dp1410
g35
g1
(g36
g3
Ntp1411
Rp1412
(dp1413
g40
I01
sg41
I20
sg42
I-10
sg43
I9
sbsg44
I275084
sg45
I-361141
sg46
S'Var5818'
p1414
sg48
g49
(g53
S'\xae\x9c\xd7\x99\xd3\nv\xc0'
p1415
tp1416
Rp1417
sg59
g49
(g53
S'\xd2[_\x03.\xcap@'
p1418
tp1419
Rp1420
sbag1
(g31
g3
Ntp1421
Rp1422
(dp1423
g35
g1412
sg44
I165888
sg45
I-242688
sg46
S'Var5819'
p1424
sg48
g49
(g53
S'\x00\x00\x00\x00\x00\xa0m\xc0'
p1425
tp1426
Rp1427
sg59
g49
(g53
S'\x00\x00\x00\x00\x00@d@'
p1428
tp1429
Rp1430
sbasg73
g1
(g31
g3
Ntp1431
Rp1432
(dp1433
g35
g1412
sg44
I440972
sg45
I-603829
sg46
S'Var5820'
p1434
sg48
g1252
sg59
g1255
sbsg46
S'Add_1112'
p1435
sg85
I1
sg86
g1
(g17
g3
Ntp1436
Rp1437
(dp1438
g21
I0
sg22
I0
sg23
g24
sg25
I0
sg26
I0
sbsg90
(lp1439
g1
(g92
g3
Ntp1440
Rp1441
(dp1442
g86
g1
(g17
g3
Ntp1443
Rp1444
(dp1445
g21
F7.947285970044855e-08
sg22
I0
sg23
g24
sg25
F-0.0009765615686774254
sg26
F0.0004882807843387127
sbsg12
I1
sg13
I20
sg15
Nsg16
g1
(g17
g3
Ntp1446
Rp1447
(dp1448
g21
I0
sg22
I0
sg23
g24
sg25
I0
sg26
I0
sbsg102
g103
sg104
I0
sg105
g1
(g106
g3
Ntp1449
Rp1450
(dp1451
g110
g49
(g53
S' X\x86\xbf\x1b\xd2\xcb\xbf'
p1452
tp1453
Rp1454
sg35
g1
(g36
g3
Ntp1455
Rp1456
(dp1457
g40
I01
sg41
I21
sg42
I-22
sg43
I-2
sbsg117
I-911630
sbsg118
g819
sg120
I-10
sg121
g1
(g106
g3
Ntp1458
Rp1459
(dp1460
g110
g1454
sg35
g1
(g36
g3
Ntp1461
Rp1462
(dp1463
g40
I01
sg41
I21
sg42
I-22
sg43
I-2
sbsg117
I-911630
sbsg73
g1
(g31
g3
Ntp1464
Rp1465
(dp1466
g35
g1
(g36
g3
Ntp1467
Rp1468
(dp1469
g40
I01
sg41
I20
sg42
I-10
sg43
I9
sbsg44
I275084
sg45
I-361141
sg46
S'Var5797'
p1470
sg48
g1417
sg59
g1420
sbsg46
S'Mult_t1[k+1]'
p1471
sg41
I22
sg136
g1
(g31
g3
Ntp1472
Rp1473
(dp1474
g35
g1
(g36
g3
Ntp1475
Rp1476
(dp1477
g40
I01
sg41
I20
sg42
I-8
sg43
I11
sbsg44
I415392
sg45
I-316407
sg46
g819
sg48
g49
(g53
S'S\x17\xee\x7f\xdbO\x93\xc0'
p1478
tp1479
Rp1480
sg59
g49
(g53
S'\xf9$\x95\xaa\x7fZ\x99@'
p1481
tp1482
Rp1483
sbsg149
I0
sbag1
(g92
g3
Ntp1484
Rp1485
(dp1486
g86
g1
(g17
g3
Ntp1487
Rp1488
(dp1489
g21
F7.94728596958949e-08
sg22
I0
sg23
g24
sg25
F-0.0009765550494194031
sg26
F0.00048827752470970154
sbsg12
I1
sg13
I17
sg15
Nsg16
g1
(g17
g3
Ntp1490
Rp1491
(dp1492
g21
I0
sg22
I0
sg23
g24
sg25
I0
sg26
I0
sbsg102
g103
sg104
I3
sg105
g1
(g106
g3
Ntp1493
Rp1494
(dp1495
g110
g49
(g53
S'\x00\x00\x00\x00\x00\x00\xf0?'
p1496
tp1497
Rp1498
sg35
g1
(g36
g3
Ntp1499
Rp1500
(dp1501
g40
I01
sg41
I18
sg42
I-16
sg43
I1
sbsg117
I65536
sbsg118
g168
sg120
I-10
sg121
g1
(g106
g3
Ntp1502
Rp1503
(dp1504
g110
g1498
sg35
g1
(g36
g3
Ntp1505
Rp1506
(dp1507
g40
I01
sg41
I18
sg42
I-16
sg43
I1
sbsg117
I65536
sbsg73
g1
(g31
g3
Ntp1508
Rp1509
(dp1510
g35
g1
(g36
g3
Ntp1511
Rp1512
(dp1513
g40
I01
sg41
I19
sg42
I-10
sg43
I8
sbsg44
I165888
sg45
I-242688
sg46
S'Var5800'
p1514
sg48
g1427
sg59
g1430
sbsg46
S'Mult_y1[k]'
p1515
sg41
I22
sg136
g1
(g31
g3
Ntp1516
Rp1517
(dp1518
g35
g1
(g36
g3
Ntp1519
Rp1520
(dp1521
g40
I01
sg41
I20
sg42
I-11
sg43
I8
sbsg44
I331776
sg45
I-485376
sg46
g168
sg48
g49
(g53
S'\x00\x00\x00\x00\x00\xa0m\xc0'
p1522
tp1523
Rp1524
sg59
g49
(g53
S'\x00\x00\x00\x00\x00@d@'
p1525
tp1526
Rp1527
sbsg149
I0
sbasg195
g1441
sbasg195
g1312
sbsg196
g1
(g31
g3
Ntp1528
Rp1529
(dp1530
g35
g1
(g36
g3
Ntp1531
Rp1532
(dp1533
g40
I01
sg41
I20
sg42
I-8
sg43
I11
sbsg44
I265776
sg45
I-260061
sg46
S'Var5796'
p1534
sg48
g49
(g53
S'\xd4\x8dFm\xe0\xbe\x8f\xc0'
p1535
tp1536
Rp1537
sg59
g49
(g53
S'\xe6P5)\xbf8\x90@'
p1538
tp1539
Rp1540
sbsg204
I2
sbag1
(g2
g3
Ntp1541
Rp1542
(dp1543
g7
g1
(g8
g3
Ntp1544
Rp1545
(dp1546
g12
Nsg13
(lp1547
I0
aI0
asg15
Nsg16
g1
(g17
g3
Ntp1548
Rp1549
(dp1550
g21
F1.5099843342912473e-06
sg22
I0
sg23
g24
sg25
F-0.006835920677985996
sg26
F0.003417960338992998
sbsg27
I01
sg28
I1
sg29
(lp1551
g1
(g31
g3
Ntp1552
Rp1553
(dp1554
g35
g1
(g36
g3
Ntp1555
Rp1556
(dp1557
g40
I01
sg41
I20
sg42
I-10
sg43
I9
sbsg44
I365867
sg45
I-286039
sg46
S'Var6073'
p1558
sg48
g49
(g53
S'Z\x06\xbf\xac[uq\xc0'
p1559
tp1560
Rp1561
sg59
g49
(g53
S'\r\x8e\x186\xacTv@'
p1562
tp1563
Rp1564
sbag1
(g31
g3
Ntp1565
Rp1566
(dp1567
g35
g1556
sg44
I593652
sg45
I-568519
sg46
S'Var6074'
p1568
sg48
g49
(g53
S"\xeb\xba\x1c'\x8eY\x81\xc0"
p1569
tp1570
Rp1571
sg59
g49
(g53
S'\xae\x08\n\xca\xe8\x1d\x82@'
p1572
tp1573
Rp1574
sbasg73
g1
(g31
g3
Ntp1575
Rp1576
(dp1577
g35
g1556
sg44
I959519
sg45
I-854558
sg46
S'Var6075'
p1578
sg48
g49
(g53
S'\x18>|\xfd;\x14\x8a\xc0'
p1579
tp1580
Rp1581
sg59
g49
(g53
S'\xb4O\x16\xe5>H\x8d@'
p1582
tp1583
Rp1584
sbsg46
S'Add_1162'
p1585
sg85
I1
sg86
g1
(g17
g3
Ntp1586
Rp1587
(dp1588
g21
F1.1920928955078125e-06
sg22
I0
sg23
g24
sg25
F-0.0029296875
sg26
F0.00146484375
sbsg90
(lp1589
g1
(g8
g3
Ntp1590
Rp1591
(dp1592
g12
Nsg13
(lp1593
I0
aI0
asg15
Nsg16
g1
(g17
g3
Ntp1594
Rp1595
(dp1596
g21
F1.589457194009691e-07
sg22
I0
sg23
g24
sg25
F-0.0019531240104697645
sg26
F0.0009765620052348822
sbsg27
I00
sg28
I1
sg29
(lp1597
g1
(g31
g3
Ntp1598
Rp1599
(dp1600
g35
g1
(g36
g3
Ntp1601
Rp1602
(dp1603
g40
I01
sg41
I20
sg42
I-10
sg43
I9
sbsg44
I50162
sg45
I-70241
sg46
S'Var6068'
p1604
sg48
g49
(g53
S'\x08\xe4\x07%\n&Q\xc0'
p1605
tp1606
Rp1607
sg59
g49
(g53
S'2\xe7\xf9\xf4D~H@'
p1608
tp1609
Rp1610
sbag1
(g31
g3
Ntp1611
Rp1612
(dp1613
g35
g1602
sg44
I315705
sg45
I-215798
sg46
S'Var6069'
p1614
sg48
g49
(g53
S'\xb1\x1a\xfaF\xb2Wj\xc0'
p1615
tp1616
Rp1617
sg59
g49
(g53
S"'Qy\x97\xe3Ds@"
p1618
tp1619
Rp1620
sbasg73
g1
(g31
g3
Ntp1621
Rp1622
(dp1623
g35
g1602
sg44
I365867
sg45
I-286039
sg46
S'Var6070'
p1624
sg48
g1561
sg59
g1564
sbsg46
S'Add_1161'
p1625
sg85
I1
sg86
g1
(g17
g3
Ntp1626
Rp1627
(dp1628
g21
I0
sg22
I0
sg23
g24
sg25
I0
sg26
I0
sbsg90
(lp1629
g1
(g92
g3
Ntp1630
Rp1631
(dp1632
g86
g1
(g17
g3
Ntp1633
Rp1634
(dp1635
g21
F7.947285970052055e-08
sg22
I0
sg23
g24
sg25
F-0.0009765624417923391
sg26
F0.00048828122089616954
sbsg12
I1
sg13
I24
sg15
Nsg16
g1
(g17
g3
Ntp1636
Rp1637
(dp1638
g21
I0
sg22
I0
sg23
g24
sg25
I0
sg26
I0
sbsg102
g103
sg104
I1
sg105
g1
(g106
g3
Ntp1639
Rp1640
(dp1641
g110
g49
(g53
S'\x00\xba+\xf5\x18\xda\xb1\xbf'
p1642
tp1643
Rp1644
sg35
g1
(g36
g3
Ntp1645
Rp1646
(dp1647
g40
I01
sg41
I23
sg42
I-25
sg43
I-3
sbsg117
I-2339890
sbsg118
S't5[k+1]'
p1648
sg120
I-10
sg121
g1
(g106
g3
Ntp1649
Rp1650
(dp1651
g110
g1644
sg35
g1
(g36
g3
Ntp1652
Rp1653
(dp1654
g40
I01
sg41
I23
sg42
I-25
sg43
I-3
sbsg117
I-2339890
sbsg73
g1
(g31
g3
Ntp1655
Rp1656
(dp1657
g35
g1
(g36
g3
Ntp1658
Rp1659
(dp1660
g40
I01
sg41
I18
sg42
I-10
sg43
I7
sbsg44
I50162
sg45
I-70241
sg46
S'Var5983'
p1661
sg48
g1607
sg59
g1610
sbsg46
S'Mult_t5[k+1]'
p1662
sg41
I22
sg136
g1
(g31
g3
Ntp1663
Rp1664
(dp1665
g35
g1
(g36
g3
Ntp1666
Rp1667
(dp1668
g40
I01
sg41
I20
sg42
I-9
sg43
I10
sbsg44
I503632
sg45
I-359667
sg46
g1648
sg48
g49
(g53
S'\xf0;=5\xcc\xf3\x85\xc0'
p1669
tp1670
Rp1671
sg59
g49
(g53
S'\x88\x1fX\t>\xbd\x8e@'
p1672
tp1673
Rp1674
sbsg149
I0
sbag1
(g92
g3
Ntp1675
Rp1676
(dp1677
g86
g1
(g17
g3
Ntp1678
Rp1679
(dp1680
g21
F7.947285970044855e-08
sg22
I0
sg23
g24
sg25
F-0.0009765615686774254
sg26
F0.0004882807843387127
sbsg12
I1
sg13
I20
sg15
Nsg16
g1
(g17
g3
Ntp1681
Rp1682
(dp1683
g21
I0
sg22
I0
sg23
g24
sg25
I0
sg26
I0
sbsg102
g103
sg104
I2
sg105
g1
(g106
g3
Ntp1684
Rp1685
(dp1686
g110
g49
(g53
S'\x12\xb1\x913\xf4\xd3\xc9?'
p1687
tp1688
Rp1689
sg35
g1
(g36
g3
Ntp1690
Rp1691
(dp1692
g40
I01
sg41
I21
sg42
I-22
sg43
I-2
sbsg117
I846330
sbsg118
g334
sg120
I-10
sg121
g1
(g106
g3
Ntp1693
Rp1694
(dp1695
g110
g1689
sg35
g1
(g36
g3
Ntp1696
Rp1697
(dp1698
g40
I01
sg41
I21
sg42
I-22
sg43
I-2
sbsg117
I846330
sbsg73
g1
(g31
g3
Ntp1699
Rp1700
(dp1701
g35
g1
(g36
g3
Ntp1702
Rp1703
(dp1704
g40
I01
sg41
I20
sg42
I-10
sg43
I9
sbsg44
I315705
sg45
I-215798
sg46
S'Var5984'
p1705
sg48
g1617
sg59
g1620
sbsg46
S'Mult_x4[k]'
p1706
sg41
I22
sg136
g1
(g31
g3
Ntp1707
Rp1708
(dp1709
g35
g1
(g36
g3
Ntp1710
Rp1711
(dp1712
g40
I01
sg41
I20
sg42
I-8
sg43
I11
sbsg44
I391148
sg45
I-267367
sg46
g334
sg48
g49
(g53
S'\x98\xf0\x1e\xc4\x9cQ\x90\xc0'
p1713
tp1714
Rp1715
sg59
g49
(g53
S'vi\xe11\xb1\xdf\x97@'
p1716
tp1717
Rp1718
sbsg149
I0
sbasg195
g1631
sbag1
(g8
g3
Ntp1719
Rp1720
(dp1721
g12
Nsg13
(lp1722
I0
aI0
asg15
Nsg16
g1
(g17
g3
Ntp1723
Rp1724
(dp1725
g21
F1.5894571938246567e-07
sg22
I0
sg23
g24
sg25
F-0.0019531091675162315
sg26
F0.0009765545837581158
sbsg27
I00
sg28
I1
sg29
(lp1726
g1
(g31
g3
Ntp1727
Rp1728
(dp1729
g35
g1
(g36
g3
Ntp1730
Rp1731
(dp1732
g40
I01
sg41
I20
sg42
I-10
sg43
I9
sbsg44
I427764
sg45
I-325831
sg46
S'Var6003'
p1733
sg48
g49
(g53
S'\xd6u9N\x1c\xe3s\xc0'
p1734
tp1735
Rp1736
sg59
g49
(g53
S'[\x11\x14\x94\xd1\x1bz@'
p1737
tp1738
Rp1739
sbag1
(g31
g3
Ntp1740
Rp1741
(dp1742
g35
g1731
sg44
I165888
sg45
I-242688
sg46
S'Var6004'
p1743
sg48
g49
(g53
S'\x00\x00\x00\x00\x00\xa0m\xc0'
p1744
tp1745
Rp1746
sg59
g49
(g53
S'\x00\x00\x00\x00\x00@d@'
p1747
tp1748
Rp1749
sbasg73
g1
(g31
g3
Ntp1750
Rp1751
(dp1752
g35
g1731
sg44
I593652
sg45
I-568519
sg46
S'Var6005'
p1753
sg48
g1571
sg59
g1574
sbsg46
S'Add_1148'
p1754
sg85
I1
sg86
g1
(g17
g3
Ntp1755
Rp1756
(dp1757
g21
I0
sg22
I0
sg23
g24
sg25
I0
sg26
I0
sbsg90
(lp1758
g1
(g92
g3
Ntp1759
Rp1760
(dp1761
g86
g1
(g17
g3
Ntp1762
Rp1763
(dp1764
g21
F7.947285970044855e-08
sg22
I0
sg23
g24
sg25
F-0.0009765615686774254
sg26
F0.0004882807843387127
sbsg12
I1
sg13
I20
sg15
Nsg16
g1
(g17
g3
Ntp1765
Rp1766
(dp1767
g21
I0
sg22
I0
sg23
g24
sg25
I0
sg26
I0
sbsg102
g103
sg104
I0
sg105
g1
(g106
g3
Ntp1768
Rp1769
(dp1770
g110
g49
(g53
S'\x10uN\xe9\xffy\xd0?'
p1771
tp1772
Rp1773
sg35
g1
(g36
g3
Ntp1774
Rp1775
(dp1776
g40
I01
sg41
I22
sg42
I-22
sg43
I-1
sbsg117
I1079808
sbsg118
g819
sg120
I-10
sg121
g1
(g106
g3
Ntp1777
Rp1778
(dp1779
g110
g1773
sg35
g1
(g36
g3
Ntp1780
Rp1781
(dp1782
g40
I01
sg41
I22
sg42
I-22
sg43
I-1
sbsg117
I1079808
sbsg73
g1
(g31
g3
Ntp1783
Rp1784
(dp1785
g35
g1
(g36
g3
Ntp1786
Rp1787
(dp1788
g40
I01
sg41
I20
sg42
I-10
sg43
I9
sbsg44
I427764
sg45
I-325831
sg46
S'Var5982'
p1789
sg48
g1736
sg59
g1739
sbsg46
S'Mult_t1[k+1]'
p1790
sg41
I22
sg136
g1
(g31
g3
Ntp1791
Rp1792
(dp1793
g35
g1
(g36
g3
Ntp1794
Rp1795
(dp1796
g40
I01
sg41
I20
sg42
I-8
sg43
I11
sbsg44
I415392
sg45
I-316407
sg46
g819
sg48
g49
(g53
S'S\x17\xee\x7f\xdbO\x93\xc0'
p1797
tp1798
Rp1799
sg59
g49
(g53
S'\xf9$\x95\xaa\x7fZ\x99@'
p1800
tp1801
Rp1802
sbsg149
I0
sbag1
(g92
g3
Ntp1803
Rp1804
(dp1805
g86
g1
(g17
g3
Ntp1806
Rp1807
(dp1808
g21
F7.947285968201712e-08
sg22
I0
sg23
g24
sg25
F-0.0009765475988388062
sg26
F0.0004882737994194031
sbsg12
I1
sg13
I16
sg15
Nsg16
g1
(g17
g3
Ntp1809
Rp1810
(dp1811
g21
I0
sg22
I0
sg23
g24
sg25
I0
sg26
I0
sbsg102
g103
sg104
I3
sg105
g1
(g106
g3
Ntp1812
Rp1813
(dp1814
g110
g49
(g53
S'\x00\x00\x00\x00\x00\x00\xf0?'
p1815
tp1816
Rp1817
sg35
g1
(g36
g3
Ntp1818
Rp1819
(dp1820
g40
I01
sg41
I17
sg42
I-15
sg43
I1
sbsg117
I32768
sbsg118
g168
sg120
I-10
sg121
g1
(g106
g3
Ntp1821
Rp1822
(dp1823
g110
g1817
sg35
g1
(g36
g3
Ntp1824
Rp1825
(dp1826
g40
I01
sg41
I17
sg42
I-15
sg43
I1
sbsg117
I32768
sbsg73
g1
(g31
g3
Ntp1827
Rp1828
(dp1829
g35
g1
(g36
g3
Ntp1830
Rp1831
(dp1832
g40
I01
sg41
I19
sg42
I-10
sg43
I8
sbsg44
I165888
sg45
I-242688
sg46
S'Var5985'
p1833
sg48
g1746
sg59
g1749
sbsg46
S'Mult_y1[k]'
p1834
sg41
I22
sg136
g1
(g31
g3
Ntp1835
Rp1836
(dp1837
g35
g1
(g36
g3
Ntp1838
Rp1839
(dp1840
g40
I01
sg41
I20
sg42
I-11
sg43
I8
sbsg44
I331776
sg45
I-485376
sg46
g168
sg48
g49
(g53
S'\x00\x00\x00\x00\x00\xa0m\xc0'
p1841
tp1842
Rp1843
sg59
g49
(g53
S'\x00\x00\x00\x00\x00@d@'
p1844
tp1845
Rp1846
sbsg149
I0
sbasg195
g1760
sbasg195
g1631
sbsg196
g1
(g31
g3
Ntp1847
Rp1848
(dp1849
g35
g1
(g36
g3
Ntp1850
Rp1851
(dp1852
g40
I01
sg41
I20
sg42
I-8
sg43
I11
sbsg44
I239879
sg45
I-213640
sg46
S'Var5981'
p1853
sg48
g49
(g53
S'\x18>|\xfd;\x14\x8a\xc0'
p1854
tp1855
Rp1856
sg59
g49
(g53
S'\xb4O\x16\xe5>H\x8d@'
p1857
tp1858
Rp1859
sbsg204
I2
sbag1
(g2
g3
Ntp1860
Rp1861
(dp1862
g7
g1
(g8
g3
Ntp1863
Rp1864
(dp1865
g12
Nsg13
(lp1866
I0
aI0
asg15
Nsg16
g1
(g17
g3
Ntp1867
Rp1868
(dp1869
g21
F1.5099843343085903e-06
sg22
I0
sg23
g24
sg25
F-0.006835931679233909
sg26
F0.0034179658396169543
sbsg27
I01
sg28
I1
sg29
(lp1870
g1
(g31
g3
Ntp1871
Rp1872
(dp1873
g35
g1
(g36
g3
Ntp1874
Rp1875
(dp1876
g40
I01
sg41
I20
sg42
I-10
sg43
I9
sbsg44
I715475
sg45
I-497754
sg46
S'Var6258'
p1877
sg48
g49
(g53
S'\xbc\x1a\xfc\xdafa~\xc0'
p1878
tp1879
Rp1880
sg59
g49
(g53
S'\xc0\x1b\xec\xc2\xa5\xd5\x85@'
p1881
tp1882
Rp1883
sbag1
(g31
g3
Ntp1884
Rp1885
(dp1886
g35
g1875
sg44
I374634
sg45
I-401691
sg46
S'Var6259'
p1887
sg48
g49
(g53
S'R\xe5@\xcfk\x84x\xc0'
p1888
tp1889
Rp1890
sg59
g49
(g53
S'6\x06\x88`\xa6\xddv@'
p1891
tp1892
Rp1893
sbasg73
g1
(g31
g3
Ntp1894
Rp1895
(dp1896
g35
g1875
sg44
I1090109
sg45
I-899445
sg46
S'Var6260'
p1897
sg48
g49
(g53
S'\x07\x80\x1eU\xe9r\x8b\xc0'
p1898
tp1899
Rp1900
sg59
g49
(g53
S'n\x0f\x98y<\xa2\x90@'
p1901
tp1902
Rp1903
sbsg46
S'Add_1198'
p1904
sg85
I1
sg86
g1
(g17
g3
Ntp1905
Rp1906
(dp1907
g21
F1.1920928955078125e-06
sg22
I0
sg23
g24
sg25
F-0.0029296875
sg26
F0.00146484375
sbsg90
(lp1908
g1
(g8
g3
Ntp1909
Rp1910
(dp1911
g12
Nsg13
(lp1912
I0
aI0
asg15
Nsg16
g1
(g17
g3
Ntp1913
Rp1914
(dp1915
g21
F1.5894571940096487e-07
sg22
I0
sg23
g24
sg25
F-0.0019531238358467817
sg26
F0.0009765619179233909
sbsg27
I00
sg28
I1
sg29
(lp1916
g1
(g31
g3
Ntp1917
Rp1918
(dp1919
g35
g1
(g36
g3
Ntp1920
Rp1921
(dp1922
g40
I01
sg41
I20
sg42
I-10
sg43
I9
sbsg44
I431354
sg45
I-294850
sg46
S'Var6253'
p1923
sg48
g49
(g53
S'\x01\xdc:#\x06\xffq\xc0'
p1924
tp1925
Rp1926
sg59
g49
(g53
S'\xcbg>\xcb\xe7Sz@'
p1927
tp1928
Rp1929
sbag1
(g31
g3
Ntp1930
Rp1931
(dp1932
g35
g1921
sg44
I284121
sg45
I-202904
sg46
S'Var6254'
p1933
sg48
g49
(g53
S'u}\x82o\xc1\xc4h\xc0'
p1934
tp1935
Rp1936
sg59
g49
(g53
S'\xb4\xcf\x99\xbacWq@'
p1937
tp1938
Rp1939
sbasg73
g1
(g31
g3
Ntp1940
Rp1941
(dp1942
g35
g1921
sg44
I715475
sg45
I-497754
sg46
S'Var6255'
p1943
sg48
g1880
sg59
g1883
sbsg46
S'Add_1197'
p1944
sg85
I1
sg86
g1
(g17
g3
Ntp1945
Rp1946
(dp1947
g21
I0
sg22
I0
sg23
g24
sg25
I0
sg26
I0
sbsg90
(lp1948
g1
(g92
g3
Ntp1949
Rp1950
(dp1951
g86
g1
(g17
g3
Ntp1952
Rp1953
(dp1954
g21
F7.947285970051632e-08
sg22
I0
sg23
g24
sg25
F-0.0009765622671693563
sg26
F0.0004882811335846782
sbsg12
I1
sg13
I22
sg15
Nsg16
g1
(g17
g3
Ntp1955
Rp1956
(dp1957
g21
I0
sg22
I0
sg23
g24
sg25
I0
sg26
I0
sbsg102
g103
sg104
I1
sg105
g1
(g106
g3
Ntp1958
Rp1959
(dp1960
g110
g49
(g53
S'\x80M\xe1}\xba\xc3\xdc?'
p1961
tp1962
Rp1963
sg35
g1
(g36
g3
Ntp1964
Rp1965
(dp1966
g40
I01
sg41
I23
sg42
I-23
sg43
I-1
sbsg117
I3770229
sbsg118
S't6[k+1]'
p1967
sg120
I-10
sg121
g1
(g106
g3
Ntp1968
Rp1969
(dp1970
g110
g1963
sg35
g1
(g36
g3
Ntp1971
Rp1972
(dp1973
g40
I01
sg41
I23
sg42
I-23
sg43
I-1
sbsg117
I3770229
sbsg73
g1
(g31
g3
Ntp1974
Rp1975
(dp1976
g35
g1
(g36
g3
Ntp1977
Rp1978
(dp1979
g40
I01
sg41
I20
sg42
I-10
sg43
I9
sbsg44
I431354
sg45
I-294850
sg46
S'Var6168'
p1980
sg48
g1926
sg59
g1929
sbsg46
S'Mult_t6[k+1]'
p1981
sg41
I22
sg136
g1
(g31
g3
Ntp1982
Rp1983
(dp1984
g35
g1
(g36
g3
Ntp1985
Rp1986
(dp1987
g40
I01
sg41
I20
sg42
I-9
sg43
I10
sbsg44
I479873
sg45
I-328014
sg46
g1967
sg48
g49
(g53
S'\xf72\xe3\xbb8\x05\x84\xc0'
p1988
tp1989
Rp1990
sg59
g49
(g53
S'!\xae4h\x02J\x8d@'
p1991
tp1992
Rp1993
sbsg149
I0
sbag1
(g92
g3
Ntp1994
Rp1995
(dp1996
g86
g1
(g17
g3
Ntp1997
Rp1998
(dp1999
g21
F7.947285970044855e-08
sg22
I0
sg23
g24
sg25
F-0.0009765615686774254
sg26
F0.0004882807843387127
sbsg12
I1
sg13
I20
sg15
Nsg16
g1
(g17
g3
Ntp2000
Rp2001
(dp2002
g21
I0
sg22
I0
sg23
g24
sg25
I0
sg26
I0
sbsg102
g103
sg104
I2
sg105
g1
(g106
g3
Ntp2003
Rp2004
(dp2005
g110
g49
(g53
S'\xa2\x8f\xa3\x08\xa3\xfa\xc9?'
p2006
tp2007
Rp2008
sg35
g1
(g36
g3
Ntp2009
Rp2010
(dp2011
g40
I01
sg41
I21
sg42
I-22
sg43
I-2
sbsg117
I851282
sbsg118
g388
sg120
I-10
sg121
g1
(g106
g3
Ntp2012
Rp2013
(dp2014
g110
g2008
sg35
g1
(g36
g3
Ntp2015
Rp2016
(dp2017
g40
I01
sg41
I21
sg42
I-22
sg43
I-2
sbsg117
I851282
sbsg73
g1
(g31
g3
Ntp2018
Rp2019
(dp2020
g35
g1
(g36
g3
Ntp2021
Rp2022
(dp2023
g40
I01
sg41
I20
sg42
I-10
sg43
I9
sbsg44
I284121
sg45
I-202904
sg46
S'Var6169'
p2024
sg48
g1936
sg59
g1939
sbsg46
S'Mult_x5[k]'
p2025
sg41
I22
sg136
g1
(g31
g3
Ntp2026
Rp2027
(dp2028
g35
g1
(g36
g3
Ntp2029
Rp2030
(dp2031
g40
I01
sg41
I20
sg42
I-8
sg43
I11
sbsg44
I349969
sg45
I-249930
sg46
g388
sg48
g49
(g53
S'Y\xfb\x1b\xd6L\x82\x8e\xc0'
p2032
tp2033
Rp2034
sg59
g49
(g53
S'\x9e\x97\x10,E\\\x95@'
p2035
tp2036
Rp2037
sbsg149
I0
sbasg195
g1950
sbag1
(g8
g3
Ntp2038
Rp2039
(dp2040
g12
Nsg13
(lp2041
I0
aI0
asg15
Nsg16
g1
(g17
g3
Ntp2042
Rp2043
(dp2044
g21
F1.589457193998129e-07
sg22
I0
sg23
g24
sg25
F-0.001953120343387127
sg26
F0.0009765601716935635
sbsg27
I00
sg28
I1
sg29
(lp2045
g1
(g31
g3
Ntp2046
Rp2047
(dp2048
g35
g1
(g36
g3
Ntp2049
Rp2050
(dp2051
g40
I01
sg41
I19
sg42
I-10
sg43
I8
sbsg44
I208746
sg45
I-159003
sg46
S'Var6188'
p2052
sg48
g49
(g53
S'\xa3\xca\x81\x9e\xd7hc\xc0'
p2053
tp2054
Rp2055
sg59
g49
(g53
S'k\x0c\x10\xc1L{i@'
p2056
tp2057
Rp2058
sbag1
(g31
g3
Ntp2059
Rp2060
(dp2061
g35
g2050
sg44
I165888
sg45
I-242688
sg46
S'Var6189'
p2062
sg48
g49
(g53
S'\x00\x00\x00\x00\x00\xa0m\xc0'
p2063
tp2064
Rp2065
sg59
g49
(g53
S'\x00\x00\x00\x00\x00@d@'
p2066
tp2067
Rp2068
sbasg73
g1
(g31
g3
Ntp2069
Rp2070
(dp2071
g35
g2050
sg44
I374634
sg45
I-401691
sg46
S'Var6190'
p2072
sg48
g1890
sg59
g1893
sbsg46
S'Add_1184'
p2073
sg85
I1
sg86
g1
(g17
g3
Ntp2074
Rp2075
(dp2076
g21
I0
sg22
I0
sg23
g24
sg25
I0
sg26
I0
sbsg90
(lp2077
g1
(g92
g3
Ntp2078
Rp2079
(dp2080
g86
g1
(g17
g3
Ntp2081
Rp2082
(dp2083
g21
F7.947285970044855e-08
sg22
I0
sg23
g24
sg25
F-0.0009765615686774254
sg26
F0.0004882807843387127
sbsg12
I1
sg13
I20
sg15
Nsg16
g1
(g17
g3
Ntp2084
Rp2085
(dp2086
g21
I0
sg22
I0
sg23
g24
sg25
I0
sg26
I0
sbsg102
g103
sg104
I0
sg105
g1
(g106
g3
Ntp2087
Rp2088
(dp2089
g110
g49
(g53
S'\xa0\x1f\x074\xb3\x14\xc0?'
p2090
tp2091
Rp2092
sg35
g1
(g36
g3
Ntp2093
Rp2094
(dp2095
g40
I01
sg41
I21
sg42
I-22
sg43
I-2
sbsg117
I526938
sbsg118
g819
sg120
I-10
sg121
g1
(g106
g3
Ntp2096
Rp2097
(dp2098
g110
g2092
sg35
g1
(g36
g3
Ntp2099
Rp2100
(dp2101
g40
I01
sg41
I21
sg42
I-22
sg43
I-2
sbsg117
I526938
sbsg73
g1
(g31
g3
Ntp2102
Rp2103
(dp2104
g35
g1
(g36
g3
Ntp2105
Rp2106
(dp2107
g40
I01
sg41
I19
sg42
I-10
sg43
I8
sbsg44
I208746
sg45
I-159003
sg46
S'Var6167'
p2108
sg48
g2055
sg59
g2058
sbsg46
S'Mult_t1[k+1]'
p2109
sg41
I22
sg136
g1
(g31
g3
Ntp2110
Rp2111
(dp2112
g35
g1
(g36
g3
Ntp2113
Rp2114
(dp2115
g40
I01
sg41
I20
sg42
I-8
sg43
I11
sbsg44
I415392
sg45
I-316407
sg46
g819
sg48
g49
(g53
S'S\x17\xee\x7f\xdbO\x93\xc0'
p2116
tp2117
Rp2118
sg59
g49
(g53
S'\xf9$\x95\xaa\x7fZ\x99@'
p2119
tp2120
Rp2121
sbsg149
I0
sbag1
(g92
g3
Ntp2122
Rp2123
(dp2124
g86
g1
(g17
g3
Ntp2125
Rp2126
(dp2127
g21
F7.947285969936435e-08
sg22
I0
sg23
g24
sg25
F-0.0009765587747097015
sg26
F0.00048827938735485077
sbsg12
I1
sg13
I18
sg15
Nsg16
g1
(g17
g3
Ntp2128
Rp2129
(dp2130
g21
I0
sg22
I0
sg23
g24
sg25
I0
sg26
I0
sbsg102
g103
sg104
I3
sg105
g1
(g106
g3
Ntp2131
Rp2132
(dp2133
g110
g49
(g53
S'\x00\x00\x00\x00\x00\x00\xf0?'
p2134
tp2135
Rp2136
sg35
g1
(g36
g3
Ntp2137
Rp2138
(dp2139
g40
I01
sg41
I19
sg42
I-17
sg43
I1
sbsg117
I131072
sbsg118
g168
sg120
I-10
sg121
g1
(g106
g3
Ntp2140
Rp2141
(dp2142
g110
g2136
sg35
g1
(g36
g3
Ntp2143
Rp2144
(dp2145
g40
I01
sg41
I19
sg42
I-17
sg43
I1
sbsg117
I131072
sbsg73
g1
(g31
g3
Ntp2146
Rp2147
(dp2148
g35
g1
(g36
g3
Ntp2149
Rp2150
(dp2151
g40
I01
sg41
I19
sg42
I-10
sg43
I8
sbsg44
I165888
sg45
I-242688
sg46
S'Var6170'
p2152
sg48
g2065
sg59
g2068
sbsg46
S'Mult_y1[k]'
p2153
sg41
I22
sg136
g1
(g31
g3
Ntp2154
Rp2155
(dp2156
g35
g1
(g36
g3
Ntp2157
Rp2158
(dp2159
g40
I01
sg41
I20
sg42
I-11
sg43
I8
sbsg44
I331776
sg45
I-485376
sg46
g168
sg48
g49
(g53
S'\x00\x00\x00\x00\x00\xa0m\xc0'
p2160
tp2161
Rp2162
sg59
g49
(g53
S'\x00\x00\x00\x00\x00@d@'
p2163
tp2164
Rp2165
sbsg149
I0
sbasg195
g2079
sbasg195
g1950
sbsg196
g1
(g31
g3
Ntp2166
Rp2167
(dp2168
g35
g1
(g36
g3
Ntp2169
Rp2170
(dp2171
g40
I01
sg41
I20
sg42
I-8
sg43
I11
sbsg44
I272527
sg45
I-224862
sg46
S'Var6166'
p2172
sg48
g49
(g53
S'\x06\x80\x1eU\xe9r\x8b\xc0'
p2173
tp2174
Rp2175
sg59
g49
(g53
S'm\x0f\x98y<\xa2\x90@'
p2176
tp2177
Rp2178
sbsg204
I2
sbag1
(g2
g3
Ntp2179
Rp2180
(dp2181
g7
g1
(g8
g3
Ntp2182
Rp2183
(dp2184
g12
Nsg13
(lp2185
I0
aI0
asg15
Nsg16
g1
(g17
g3
Ntp2186
Rp2187
(dp2188
g21
F1.5099843342357363e-06
sg22
I0
sg23
g24
sg25
F-0.006835905805928633
sg26
F0.0034179529029643163
sbsg27
I01
sg28
I1
sg29
(lp2189
g1
(g31
g3
Ntp2190
Rp2191
(dp2192
g35
g1
(g36
g3
Ntp2193
Rp2194
(dp2195
g40
I01
sg41
I20
sg42
I-10
sg43
I9
sbsg44
I294242
sg45
I-220042
sg46
S'Var6443'
p2196
sg48
g49
(g53
S'^\x9fJ\x9dJ\xdcj\xc0'
p2197
tp2198
Rp2199
sg59
g49
(g53
S'<\x972U\x89\xf5q@'
p2200
tp2201
Rp2202
sbag1
(g31
g3
Ntp2203
Rp2204
(dp2205
g35
g2194
sg44
I308975
sg45
I-351678
sg46
S'Var6444'
p2206
sg48
g49
(g53
S'8\xa2\xc6\xf3\xf7vu\xc0'
p2207
tp2208
Rp2209
sg59
g49
(g53
S'\xbf\xed\xfb\x18\xba\xdbr@'
p2210
tp2211
Rp2212
sbasg73
g1
(g31
g3
Ntp2213
Rp2214
(dp2215
g35
g2194
sg44
I603217
sg45
I-571720
sg46
S'Var6445'
p2216
sg48
g49
(g53
S'\xf4\xf85\xa1\x8er\x81\xc0'
p2217
tp2218
Rp2219
sg59
g49
(g53
S'~B\x17\xb7\xa1h\x82@'
p2220
tp2221
Rp2222
sbsg46
S'Add_1234'
p2223
sg85
I1
sg86
g1
(g17
g3
Ntp2224
Rp2225
(dp2226
g21
F1.1920928955078125e-06
sg22
I0
sg23
g24
sg25
F-0.0029296875
sg26
F0.00146484375
sbsg90
(lp2227
g1
(g8
g3
Ntp2228
Rp2229
(dp2230
g12
Nsg13
(lp2231
I0
aI0
asg15
Nsg16
g1
(g17
g3
Ntp2232
Rp2233
(dp2234
g21
F1.5894571940096932e-07
sg22
I0
sg23
g24
sg25
F-0.001953124039573595
sg26
F0.0009765620197867975
sbsg27
I00
sg28
I1
sg29
(lp2235
g1
(g31
g3
Ntp2236
Rp2237
(dp2238
g35
g1
(g36
g3
Ntp2239
Rp2240
(dp2241
g40
I01
sg41
I20
sg42
I-10
sg43
I9
sbsg44
I24266
sg45
I-35501
sg46
S'Var6438'
p2242
sg48
g49
(g53
S'\x82\xe0\xa3H\x99UA\xc0'
p2243
tp2244
Rp2245
sg59
g49
(g53
S'w\xce-9\x97\xb27@'
p2246
tp2247
Rp2248
sbag1
(g31
g3
Ntp2249
Rp2250
(dp2251
g35
g2240
sg44
I269976
sg45
I-184541
sg46
S'Var6439'
p2252
sg48
g49
(g53
S'=\xa7!K\xe4\x86f\xc0'
p2253
tp2254
Rp2255
sg59
g49
(g53
S'U\xba\x9f\xe1_zp@'
p2256
tp2257
Rp2258
sbasg73
g1
(g31
g3
Ntp2259
Rp2260
(dp2261
g35
g2240
sg44
I294242
sg45
I-220042
sg46
S'Var6440'
p2262
sg48
g2199
sg59
g2202
sbsg46
S'Add_1233'
p2263
sg85
I1
sg86
g1
(g17
g3
Ntp2264
Rp2265
(dp2266
g21
I0
sg22
I0
sg23
g24
sg25
I0
sg26
I0
sbsg90
(lp2267
g1
(g92
g3
Ntp2268
Rp2269
(dp2270
g86
g1
(g17
g3
Ntp2271
Rp2272
(dp2273
g21
F7.947285970052076e-08
sg22
I0
sg23
g24
sg25
F-0.0009765624708961695
sg26
F0.00048828123544808477
sbsg12
I1
sg13
I25
sg15
Nsg16
g1
(g17
g3
Ntp2274
Rp2275
(dp2276
g21
I0
sg22
I0
sg23
g24
sg25
I0
sg26
I0
sbsg102
g103
sg104
I1
sg105
g1
(g106
g3
Ntp2277
Rp2278
(dp2279
g110
g49
(g53
S' *\xf5\x0c\x02\xe4\xa4\xbf'
p2280
tp2281
Rp2282
sg35
g1
(g36
g3
Ntp2283
Rp2284
(dp2285
g40
I01
sg41
I23
sg42
I-26
sg43
I-4
sbsg117
I-2738180
sbsg118
S't7[k+1]'
p2286
sg120
I-10
sg121
g1
(g106
g3
Ntp2287
Rp2288
(dp2289
g110
g2282
sg35
g1
(g36
g3
Ntp2290
Rp2291
(dp2292
g40
I01
sg41
I23
sg42
I-26
sg43
I-4
sbsg117
I-2738180
sbsg73
g1
(g31
g3
Ntp2293
Rp2294
(dp2295
g35
g1
(g36
g3
Ntp2296
Rp2297
(dp2298
g40
I01
sg41
I17
sg42
I-10
sg43
I6
sbsg44
I24266
sg45
I-35501
sg46
S'Var6353'
p2299
sg48
g2245
sg59
g2248
sbsg46
S'Mult_t7[k+1]'
p2300
sg41
I22
sg136
g1
(g31
g3
Ntp2301
Rp2302
(dp2303
g35
g1
(g36
g3
Ntp2304
Rp2305
(dp2306
g40
I01
sg41
I20
sg42
I-9
sg43
I10
sbsg44
I435037
sg45
I-297367
sg46
g2286
sg48
g49
(g53
S'\xf6\x9d\x11r[&\x82\xc0'
p2307
tp2308
Rp2309
sg59
g49
(g53
S'\x04\x8d\x8b\xd1r\x8d\x8a@'
p2310
tp2311
Rp2312
sbsg149
I0
sbag1
(g92
g3
Ntp2313
Rp2314
(dp2315
g86
g1
(g17
g3
Ntp2316
Rp2317
(dp2318
g21
F7.947285970044855e-08
sg22
I0
sg23
g24
sg25
F-0.0009765615686774254
sg26
F0.0004882807843387127
sbsg12
I1
sg13
I20
sg15
Nsg16
g1
(g17
g3
Ntp2319
Rp2320
(dp2321
g21
I0
sg22
I0
sg23
g24
sg25
I0
sg26
I0
sbsg102
g103
sg104
I2
sg105
g1
(g106
g3
Ntp2322
Rp2323
(dp2324
g110
g49
(g53
S'\xcc?\xef\xb3\xf2y\xcb?'
p2325
tp2326
Rp2327
sg35
g1
(g36
g3
Ntp2328
Rp2329
(dp2330
g40
I01
sg41
I21
sg42
I-22
sg43
I-2
sbsg117
I900345
sbsg118
g442
sg120
I-10
sg121
g1
(g106
g3
Ntp2331
Rp2332
(dp2333
g110
g2327
sg35
g1
(g36
g3
Ntp2334
Rp2335
(dp2336
g40
I01
sg41
I21
sg42
I-22
sg43
I-2
sbsg117
I900345
sbsg73
g1
(g31
g3
Ntp2337
Rp2338
(dp2339
g35
g1
(g36
g3
Ntp2340
Rp2341
(dp2342
g40
I01
sg41
I20
sg42
I-10
sg43
I9
sbsg44
I269976
sg45
I-184541
sg46
S'Var6354'
p2343
sg48
g2255
sg59
g2258
sbsg46
S'Mult_x6[k]'
p2344
sg41
I22
sg136
g1
(g31
g3
Ntp2345
Rp2346
(dp2347
g35
g1
(g36
g3
Ntp2348
Rp2349
(dp2350
g40
I01
sg41
I20
sg42
I-8
sg43
I11
sbsg44
I314424
sg45
I-214923
sg46
g442
sg48
g49
(g53
S'\xfb\xd3\x81\xb3V<\x8a\xc0'
p2351
tp2352
Rp2353
sg59
g49
(g53
S'\xba\x85\x02\x9b\xe00\x93@'
p2354
tp2355
Rp2356
sbsg149
I0
sbasg195
g2269
sbag1
(g8
g3
Ntp2357
Rp2358
(dp2359
g12
Nsg13
(lp2360
I0
aI0
asg15
Nsg16
g1
(g17
g3
Ntp2361
Rp2362
(dp2363
g21
F1.5894571932695452e-07
sg22
I0
sg23
g24
sg25
F-0.0019530942663550377
sg26
F0.0009765471331775188
sbsg27
I00
sg28
I1
sg29
(lp2364
g1
(g31
g3
Ntp2365
Rp2366
(dp2367
g35
g1
(g36
g3
Ntp2368
Rp2369
(dp2370
g40
I01
sg41
I19
sg42
I-10
sg43
I8
sbsg44
I143087
sg45
I-108990
sg46
S'Var6373'
p2371
sg48
g49
(g53
S'\xdf\x88\x1a\xcf\xdf\x9bZ\xc0'
p2372
tp2373
Rp2374
sg59
g49
(g53
S'~\xdb\xf71twa@'
p2375
tp2376
Rp2377
sbag1
(g31
g3
Ntp2378
Rp2379
(dp2380
g35
g2369
sg44
I165888
sg45
I-242688
sg46
S'Var6374'
p2381
sg48
g49
(g53
S'\x00\x00\x00\x00\x00\xa0m\xc0'
p2382
tp2383
Rp2384
sg59
g49
(g53
S'\x00\x00\x00\x00\x00@d@'
p2385
tp2386
Rp2387
sbasg73
g1
(g31
g3
Ntp2388
Rp2389
(dp2390
g35
g2369
sg44
I308975
sg45
I-351678
sg46
S'Var6375'
p2391
sg48
g2209
sg59
g2212
sbsg46
S'Add_1220'
p2392
sg85
I1
sg86
g1
(g17
g3
Ntp2393
Rp2394
(dp2395
g21
I0
sg22
I0
sg23
g24
sg25
I0
sg26
I0
sbsg90
(lp2396
g1
(g92
g3
Ntp2397
Rp2398
(dp2399
g86
g1
(g17
g3
Ntp2400
Rp2401
(dp2402
g21
F7.947285970044855e-08
sg22
I0
sg23
g24
sg25
F-0.0009765615686774254
sg26
F0.0004882807843387127
sbsg12
I1
sg13
I20
sg15
Nsg16
g1
(g17
g3
Ntp2403
Rp2404
(dp2405
g21
I0
sg22
I0
sg23
g24
sg25
I0
sg26
I0
sbsg102
g103
sg104
I0
sg105
g1
(g106
g3
Ntp2406
Rp2407
(dp2408
g110
g49
(g53
S'\x00\x93\xc3C\xa8\x0b\xb6?'
p2409
tp2410
Rp2411
sg35
g1
(g36
g3
Ntp2412
Rp2413
(dp2414
g40
I01
sg41
I20
sg42
I-22
sg43
I-3
sbsg117
I361194
sbsg118
g819
sg120
I-10
sg121
g1
(g106
g3
Ntp2415
Rp2416
(dp2417
g110
g2411
sg35
g1
(g36
g3
Ntp2418
Rp2419
(dp2420
g40
I01
sg41
I20
sg42
I-22
sg43
I-3
sbsg117
I361194
sbsg73
g1
(g31
g3
Ntp2421
Rp2422
(dp2423
g35
g1
(g36
g3
Ntp2424
Rp2425
(dp2426
g40
I01
sg41
I19
sg42
I-10
sg43
I8
sbsg44
I143087
sg45
I-108990
sg46
S'Var6352'
p2427
sg48
g2374
sg59
g2377
sbsg46
S'Mult_t1[k+1]'
p2428
sg41
I22
sg136
g1
(g31
g3
Ntp2429
Rp2430
(dp2431
g35
g1
(g36
g3
Ntp2432
Rp2433
(dp2434
g40
I01
sg41
I20
sg42
I-8
sg43
I11
sbsg44
I415392
sg45
I-316407
sg46
g819
sg48
g49
(g53
S'S\x17\xee\x7f\xdbO\x93\xc0'
p2435
tp2436
Rp2437
sg59
g49
(g53
S'\xf9$\x95\xaa\x7fZ\x99@'
p2438
tp2439
Rp2440
sbsg149
I0
sbag1
(g92
g3
Ntp2441
Rp2442
(dp2443
g86
g1
(g17
g3
Ntp2444
Rp2445
(dp2446
g21
F7.947285962650597e-08
sg22
I0
sg23
g24
sg25
F-0.0009765326976776123
sg26
F0.00048826634883880615
sbsg12
I1
sg13
I15
sg15
Nsg16
g1
(g17
g3
Ntp2447
Rp2448
(dp2449
g21
I0
sg22
I0
sg23
g24
sg25
I0
sg26
I0
sbsg102
g103
sg104
I3
sg105
g1
(g106
g3
Ntp2450
Rp2451
(dp2452
g110
g49
(g53
S'\x00\x00\x00\x00\x00\x00\xf0?'
p2453
tp2454
Rp2455
sg35
g1
(g36
g3
Ntp2456
Rp2457
(dp2458
g40
I01
sg41
I16
sg42
I-14
sg43
I1
sbsg117
I16384
sbsg118
g168
sg120
I-10
sg121
g1
(g106
g3
Ntp2459
Rp2460
(dp2461
g110
g2455
sg35
g1
(g36
g3
Ntp2462
Rp2463
(dp2464
g40
I01
sg41
I16
sg42
I-14
sg43
I1
sbsg117
I16384
sbsg73
g1
(g31
g3
Ntp2465
Rp2466
(dp2467
g35
g1
(g36
g3
Ntp2468
Rp2469
(dp2470
g40
I01
sg41
I19
sg42
I-10
sg43
I8
sbsg44
I165888
sg45
I-242688
sg46
S'Var6355'
p2471
sg48
g2384
sg59
g2387
sbsg46
S'Mult_y1[k]'
p2472
sg41
I22
sg136
g1
(g31
g3
Ntp2473
Rp2474
(dp2475
g35
g1
(g36
g3
Ntp2476
Rp2477
(dp2478
g40
I01
sg41
I20
sg42
I-11
sg43
I8
sbsg44
I331776
sg45
I-485376
sg46
g168
sg48
g49
(g53
S'\x00\x00\x00\x00\x00\xa0m\xc0'
p2479
tp2480
Rp2481
sg59
g49
(g53
S'\x00\x00\x00\x00\x00@d@'
p2482
tp2483
Rp2484
sbsg149
I0
sbasg195
g2398
sbasg195
g2269
sbsg196
g1
(g31
g3
Ntp2485
Rp2486
(dp2487
g35
g1
(g36
g3
Ntp2488
Rp2489
(dp2490
g40
I01
sg41
I20
sg42
I-8
sg43
I11
sbsg44
I150804
sg45
I-142930
sg46
S'Var6351'
p2491
sg48
g49
(g53
S'\xf3\xf85\xa1\x8er\x81\xc0'
p2492
tp2493
Rp2494
sg59
g49
(g53
S'~B\x17\xb7\xa1h\x82@'
p2495
tp2496
Rp2497
sbsg204
I2
sbag1
(g2
g3
Ntp2498
Rp2499
(dp2500
g7
g1
(g8
g3
Ntp2501
Rp2502
(dp2503
g12
Nsg13
(lp2504
I0
aI0
asg15
Nsg16
g1
(g17
g3
Ntp2505
Rp2506
(dp2507
g21
F1.5099843343085903e-06
sg22
I0
sg23
g24
sg25
F-0.006835931679233909
sg26
F0.0034179658396169543
sbsg27
I01
sg28
I1
sg29
(lp2508
g1
(g31
g3
Ntp2509
Rp2510
(dp2511
g35
g1
(g36
g3
Ntp2512
Rp2513
(dp2514
g40
I01
sg41
I20
sg42
I-10
sg43
I9
sbsg44
I430480
sg45
I-457881
sg46
S'Var6628'
p2515
sg48
g49
(g53
S'^\xa1\x17\xcdc\xf2{\xc0'
p2516
tp2517
Rp2518
sg59
g49
(g53
S'#Yp4@Fz@'
p2519
tp2520
Rp2521
sbag1
(g31
g3
Ntp2522
Rp2523
(dp2524
g35
g2513
sg44
I388803
sg45
I-412484
sg46
S'Var6629'
p2525
sg48
g49
(g53
S'\xf4\x7fX\xc8\x10-y\xc0'
p2526
tp2527
Rp2528
sg59
g49
(g53
S'\nt=\xa0\r\xbbw@'
p2529
tp2530
Rp2531
sbasg73
g1
(g31
g3
Ntp2532
Rp2533
(dp2534
g35
g2513
sg44
I819283
sg45
I-870365
sg46
S'Var6630'
p2535
sg48
g49
(g53
S'\xa9\x10\xb8J\xba\x8f\x8a\xc0'
p2536
tp2537
Rp2538
sg59
g49
(g53
S'\x96\xe6V\xea\xa6\x00\x89@'
p2539
tp2540
Rp2541
sbsg46
S'Add_1270'
p2542
sg85
I1
sg86
g1
(g17
g3
Ntp2543
Rp2544
(dp2545
g21
F1.1920928955078125e-06
sg22
I0
sg23
g24
sg25
F-0.0029296875
sg26
F0.00146484375
sbsg90
(lp2546
g1
(g8
g3
Ntp2547
Rp2548
(dp2549
g12
Nsg13
(lp2550
I0
aI0
asg15
Nsg16
g1
(g17
g3
Ntp2551
Rp2552
(dp2553
g21
F1.5894571940096487e-07
sg22
I0
sg23
g24
sg25
F-0.0019531238358467817
sg26
F0.0009765619179233909
sbsg27
I00
sg28
I1
sg29
(lp2554
g1
(g31
g3
Ntp2555
Rp2556
(dp2557
g35
g1
(g36
g3
Ntp2558
Rp2559
(dp2560
g40
I01
sg41
I20
sg42
I-10
sg43
I9
sbsg44
I209937
sg45
I-307130
sg46
S'Var6623'
p2561
sg48
g49
(g53
S'\xa9[\x95\xd5\xe7\xber\xc0'
p2562
tp2563
Rp2564
sg59
g49
(g53
S'w\x9a=x\x87\xa0i@'
p2565
tp2566
Rp2567
sbag1
(g31
g3
Ntp2568
Rp2569
(dp2570
g35
g2559
sg44
I220543
sg45
I-150751
sg46
S'Var6624'
p2571
sg48
g49
(g53
S'j\x8b\x04\xef\xf7fb\xc0'
p2572
tp2573
Rp2574
sg59
g49
(g53
S'\xcf\x17\xa3\xf0\xf8\xebj@'
p2575
tp2576
Rp2577
sbasg73
g1
(g31
g3
Ntp2578
Rp2579
(dp2580
g35
g2559
sg44
I430480
sg45
I-457881
sg46
S'Var6625'
p2581
sg48
g2518
sg59
g2521
sbsg46
S'Add_1269'
p2582
sg85
I1
sg86
g1
(g17
g3
Ntp2583
Rp2584
(dp2585
g21
I0
sg22
I0
sg23
g24
sg25
I0
sg26
I0
sbsg90
(lp2586
g1
(g92
g3
Ntp2587
Rp2588
(dp2589
g86
g1
(g17
g3
Ntp2590
Rp2591
(dp2592
g21
F7.947285970051632e-08
sg22
I0
sg23
g24
sg25
F-0.0009765622671693563
sg26
F0.0004882811335846782
sbsg12
I1
sg13
I22
sg15
Nsg16
g1
(g17
g3
Ntp2593
Rp2594
(dp2595
g21
I0
sg22
I0
sg23
g24
sg25
I0
sg26
I0
sbsg102
g103
sg104
I1
sg105
g1
(g106
g3
Ntp2596
Rp2597
(dp2598
g110
g49
(g53
S'\x8a\xa4G\\\xe6\xd3\xde\xbf'
p2599
tp2600
Rp2601
sg35
g1
(g36
g3
Ntp2602
Rp2603
(dp2604
g40
I01
sg41
I23
sg42
I-23
sg43
I-1
sbsg117
I-4040653
sbsg118
S't8[k+1]'
p2605
sg120
I-10
sg121
g1
(g106
g3
Ntp2606
Rp2607
(dp2608
g110
g2601
sg35
g1
(g36
g3
Ntp2609
Rp2610
(dp2611
g40
I01
sg41
I23
sg42
I-23
sg43
I-1
sbsg117
I-4040653
sbsg73
g1
(g31
g3
Ntp2612
Rp2613
(dp2614
g35
g1
(g36
g3
Ntp2615
Rp2616
(dp2617
g40
I01
sg41
I20
sg42
I-10
sg43
I9
sbsg44
I209937
sg45
I-307130
sg46
S'Var6538'
p2618
sg48
g2564
sg59
g2567
sbsg46
S'Mult_t8[k+1]'
p2619
sg41
I22
sg136
g1
(g31
g3
Ntp2620
Rp2621
(dp2622
g35
g1
(g36
g3
Ntp2623
Rp2624
(dp2625
g40
I01
sg41
I20
sg42
I-9
sg43
I10
sbsg44
I318809
sg45
I-217920
sg46
g2605
sg48
g49
(g53
S'\x80\x95\xd9\x8d\x00\x9az\xc0'
p2626
tp2627
Rp2628
sg59
g49
(g53
S'f\x9a\xfb\xf5cu\x83@'
p2629
tp2630
Rp2631
sbsg149
I0
sbag1
(g92
g3
Ntp2632
Rp2633
(dp2634
g86
g1
(g17
g3
Ntp2635
Rp2636
(dp2637
g21
F7.947285970044855e-08
sg22
I0
sg23
g24
sg25
F-0.0009765615686774254
sg26
F0.0004882807843387127
sbsg12
I1
sg13
I20
sg15
Nsg16
g1
(g17
g3
Ntp2638
Rp2639
(dp2640
g21
I0
sg22
I0
sg23
g24
sg25
I0
sg26
I0
sbsg102
g103
sg104
I2
sg105
g1
(g106
g3
Ntp2641
Rp2642
(dp2643
g110
g49
(g53
S'\xd9\x1f9^\x15\xb3\xc8?'
p2644
tp2645
Rp2646
sg35
g1
(g36
g3
Ntp2647
Rp2648
(dp2649
g40
I01
sg41
I21
sg42
I-22
sg43
I-2
sbsg117
I809355
sbsg118
g496
sg120
I-10
sg121
g1
(g106
g3
Ntp2650
Rp2651
(dp2652
g110
g2646
sg35
g1
(g36
g3
Ntp2653
Rp2654
(dp2655
g40
I01
sg41
I21
sg42
I-22
sg43
I-2
sbsg117
I809355
sbsg73
g1
(g31
g3
Ntp2656
Rp2657
(dp2658
g35
g1
(g36
g3
Ntp2659
Rp2660
(dp2661
g40
I01
sg41
I19
sg42
I-10
sg43
I8
sbsg44
I220543
sg45
I-150751
sg46
S'Var6539'
p2662
sg48
g2574
sg59
g2577
sbsg46
S'Mult_x7[k]'
p2663
sg41
I22
sg136
g1
(g31
g3
Ntp2664
Rp2665
(dp2666
g35
g1
(g36
g3
Ntp2667
Rp2668
(dp2669
g40
I01
sg41
I20
sg42
I-8
sg43
I11
sbsg44
I285729
sg45
I-195309
sg46
g496
sg48
g49
(g53
S'\xe9\xf1\x1f9d\xd7\x87\xc0'
p2670
tp2671
Rp2672
sg59
g49
(g53
S'-\xff\x14\x92\x84p\x91@'
p2673
tp2674
Rp2675
sbsg149
I0
sbasg195
g2588
sbag1
(g8
g3
Ntp2676
Rp2677
(dp2678
g12
Nsg13
(lp2679
I0
aI0
asg15
Nsg16
g1
(g17
g3
Ntp2680
Rp2681
(dp2682
g21
F1.589457193998129e-07
sg22
I0
sg23
g24
sg25
F-0.001953120343387127
sg26
F0.0009765601716935635
sbsg27
I00
sg28
I1
sg29
(lp2683
g1
(g31
g3
Ntp2684
Rp2685
(dp2686
g35
g1
(g36
g3
Ntp2687
Rp2688
(dp2689
g40
I01
sg41
I19
sg42
I-10
sg43
I8
sbsg44
I222915
sg45
I-169796
sg46
S'Var6558'
p2690
sg48
g49
(g53
S'\xe7\xff\xb0\x90!\xbad\xc0'
p2691
tp2692
Rp2693
sg59
g49
(g53
S'\x15\xe8z@\x1b6k@'
p2694
tp2695
Rp2696
sbag1
(g31
g3
Ntp2697
Rp2698
(dp2699
g35
g2688
sg44
I165888
sg45
I-242688
sg46
S'Var6559'
p2700
sg48
g49
(g53
S'\x00\x00\x00\x00\x00\xa0m\xc0'
p2701
tp2702
Rp2703
sg59
g49
(g53
S'\x00\x00\x00\x00\x00@d@'
p2704
tp2705
Rp2706
sbasg73
g1
(g31
g3
Ntp2707
Rp2708
(dp2709
g35
g2688
sg44
I388803
sg45
I-412484
sg46
S'Var6560'
p2710
sg48
g2528
sg59
g2531
sbsg46
S'Add_1256'
p2711
sg85
I1
sg86
g1
(g17
g3
Ntp2712
Rp2713
(dp2714
g21
I0
sg22
I0
sg23
g24
sg25
I0
sg26
I0
sbsg90
(lp2715
g1
(g92
g3
Ntp2716
Rp2717
(dp2718
g86
g1
(g17
g3
Ntp2719
Rp2720
(dp2721
g21
F7.947285970044855e-08
sg22
I0
sg23
g24
sg25
F-0.0009765615686774254
sg26
F0.0004882807843387127
sbsg12
I1
sg13
I20
sg15
Nsg16
g1
(g17
g3
Ntp2722
Rp2723
(dp2724
g21
I0
sg22
I0
sg23
g24
sg25
I0
sg26
I0
sbsg102
g103
sg104
I0
sg105
g1
(g106
g3
Ntp2725
Rp2726
(dp2727
g110
g49
(g53
S'\xe0\xdf\xf5\x10%,\xc1?'
p2728
tp2729
Rp2730
sg35
g1
(g36
g3
Ntp2731
Rp2732
(dp2733
g40
I01
sg41
I21
sg42
I-22
sg43
I-2
sbsg117
I562707
sbsg118
g819
sg120
I-10
sg121
g1
(g106
g3
Ntp2734
Rp2735
(dp2736
g110
g2730
sg35
g1
(g36
g3
Ntp2737
Rp2738
(dp2739
g40
I01
sg41
I21
sg42
I-22
sg43
I-2
sbsg117
I562707
sbsg73
g1
(g31
g3
Ntp2740
Rp2741
(dp2742
g35
g1
(g36
g3
Ntp2743
Rp2744
(dp2745
g40
I01
sg41
I19
sg42
I-10
sg43
I8
sbsg44
I222915
sg45
I-169796
sg46
S'Var6537'
p2746
sg48
g2693
sg59
g2696
sbsg46
S'Mult_t1[k+1]'
p2747
sg41
I22
sg136
g1
(g31
g3
Ntp2748
Rp2749
(dp2750
g35
g1
(g36
g3
Ntp2751
Rp2752
(dp2753
g40
I01
sg41
I20
sg42
I-8
sg43
I11
sbsg44
I415392
sg45
I-316407
sg46
g819
sg48
g49
(g53
S'S\x17\xee\x7f\xdbO\x93\xc0'
p2754
tp2755
Rp2756
sg59
g49
(g53
S'\xf9$\x95\xaa\x7fZ\x99@'
p2757
tp2758
Rp2759
sbsg149
I0
sbag1
(g92
g3
Ntp2760
Rp2761
(dp2762
g86
g1
(g17
g3
Ntp2763
Rp2764
(dp2765
g21
F7.947285969936435e-08
sg22
I0
sg23
g24
sg25
F-0.0009765587747097015
sg26
F0.00048827938735485077
sbsg12
I1
sg13
I18
sg15
Nsg16
g1
(g17
g3
Ntp2766
Rp2767
(dp2768
g21
I0
sg22
I0
sg23
g24
sg25
I0
sg26
I0
sbsg102
g103
sg104
I3
sg105
g1
(g106
g3
Ntp2769
Rp2770
(dp2771
g110
g49
(g53
S'\x00\x00\x00\x00\x00\x00\xf0?'
p2772
tp2773
Rp2774
sg35
g1
(g36
g3
Ntp2775
Rp2776
(dp2777
g40
I01
sg41
I19
sg42
I-17
sg43
I1
sbsg117
I131072
sbsg118
g168
sg120
I-10
sg121
g1
(g106
g3
Ntp2778
Rp2779
(dp2780
g110
g2774
sg35
g1
(g36
g3
Ntp2781
Rp2782
(dp2783
g40
I01
sg41
I19
sg42
I-17
sg43
I1
sbsg117
I131072
sbsg73
g1
(g31
g3
Ntp2784
Rp2785
(dp2786
g35
g1
(g36
g3
Ntp2787
Rp2788
(dp2789
g40
I01
sg41
I19
sg42
I-10
sg43
I8
sbsg44
I165888
sg45
I-242688
sg46
S'Var6540'
p2790
sg48
g2703
sg59
g2706
sbsg46
S'Mult_y1[k]'
p2791
sg41
I22
sg136
g1
(g31
g3
Ntp2792
Rp2793
(dp2794
g35
g1
(g36
g3
Ntp2795
Rp2796
(dp2797
g40
I01
sg41
I20
sg42
I-11
sg43
I8
sbsg44
I331776
sg45
I-485376
sg46
g168
sg48
g49
(g53
S'\x00\x00\x00\x00\x00\xa0m\xc0'
p2798
tp2799
Rp2800
sg59
g49
(g53
S'\x00\x00\x00\x00\x00@d@'
p2801
tp2802
Rp2803
sbsg149
I0
sbasg195
g2717
sbasg195
g2588
sbsg196
g1
(g31
g3
Ntp2804
Rp2805
(dp2806
g35
g1
(g36
g3
Ntp2807
Rp2808
(dp2809
g40
I01
sg41
I20
sg42
I-8
sg43
I11
sbsg44
I204820
sg45
I-217592
sg46
S'Var6536'
p2810
sg48
g49
(g53
S'\xa8\x10\xb8J\xba\x8f\x8a\xc0'
p2811
tp2812
Rp2813
sg59
g49
(g53
S'\x97\xe6V\xea\xa6\x00\x89@'
p2814
tp2815
Rp2816
sbsg204
I2
sbag1
(g2
g3
Ntp2817
Rp2818
(dp2819
g7
g1
(g8
g3
Ntp2820
Rp2821
(dp2822
g12
Nsg13
(lp2823
I0
aI0
asg15
Nsg16
g1
(g17
g3
Ntp2824
Rp2825
(dp2826
g21
F1.4305114746089955e-06
sg22
I0
sg23
g24
sg25
F-0.005859371740370989
sg26
F0.0029296858701854944
sbsg27
I01
sg28
I1
sg29
(lp2827
g1
(g31
g3
Ntp2828
Rp2829
(dp2830
g35
g1
(g36
g3
Ntp2831
Rp2832
(dp2833
g40
I01
sg41
I20
sg42
I-10
sg43
I9
sbsg44
I453461
sg45
I-663395
sg46
S'Var6742'
p2834
sg48
g49
(g53
S'M\xe7\xce\xf7\xc6>\x84\xc0'
p2835
tp2836
Rp2837
sg59
g49
(g53
S"H\xd1'\xd1P\xad{@"
p2838
tp2839
Rp2840
sbag1
(g31
g3
Ntp2841
Rp2842
(dp2843
g35
g2832
sg44
I219672
sg45
I-167326
sg46
S'Var6743'
p2844
sg48
g49
(g53
S'\xa0\x87\xd5d\xf0ld\xc0'
p2845
tp2846
Rp2847
sg59
g49
(g53
S'\x06\xcb\xde\xf9\xc3\xd0j@'
p2848
tp2849
Rp2850
sbasg73
g1
(g31
g3
Ntp2851
Rp2852
(dp2853
g35
g2832
sg44
I673133
sg45
I-830721
sg46
S'Var6744'
p2854
sg48
g49
(g53
S'5I\x04\x11\x03Z\x89\xc0'
p2855
tp2856
Rp2857
sg59
g49
(g53
S'f\x9b\x0bg\xd9\x8a\x84@'
p2858
tp2859
Rp2860
sbsg46
S'Add_1292'
p2861
sg85
I1
sg86
g1
(g17
g3
Ntp2862
Rp2863
(dp2864
g21
F1.1920928955078125e-06
sg22
I0
sg23
g24
sg25
F-0.0029296875
sg26
F0.00146484375
sbsg90
(lp2865
g1
(g8
g3
Ntp2866
Rp2867
(dp2868
g12
Nsg13
(lp2869
I0
aI0
asg15
Nsg16
g1
(g17
g3
Ntp2870
Rp2871
(dp2872
g21
F1.5894571940073448e-07
sg22
I0
sg23
g24
sg25
F-0.0019531226716935635
sg26
F0.0009765613358467817
sbsg27
I00
sg28
I1
sg29
(lp2873
g1
(g31
g3
Ntp2874
Rp2875
(dp2876
g35
g1
(g36
g3
Ntp2877
Rp2878
(dp2879
g40
I01
sg41
I20
sg42
I-10
sg43
I9
sbsg44
I323015
sg45
I-472558
sg46
S'Var6737'
p2880
sg48
g49
(g53
S'\x18B#%\xb9\xd7|\xc0'
p2881
tp2882
Rp2883
sg59
g49
(g53
S'\xd8\xa1b\x19\x1a\xb7s@'
p2884
tp2885
Rp2886
sbag1
(g31
g3
Ntp2887
Rp2888
(dp2889
g35
g2878
sg44
I130446
sg45
I-190837
sg46
S'Var6738'
p2890
sg48
g49
(g53
S'\x04\x19\xf5\x94\xa9Kg\xc0'
p2891
tp2892
Rp2893
sg59
g49
(g53
S'\xbe\xbd\x14\xdf\xda\xd8_@'
p2894
tp2895
Rp2896
sbasg73
g1
(g31
g3
Ntp2897
Rp2898
(dp2899
g35
g2878
sg44
I453461
sg45
I-663395
sg46
S'Var6739'
p2900
sg48
g2837
sg59
g2840
sbsg46
S'Add_1291'
p2901
sg85
I1
sg86
g1
(g17
g3
Ntp2902
Rp2903
(dp2904
g21
I0
sg22
I0
sg23
g24
sg25
I0
sg26
I0
sbsg90
(lp2905
g1
(g92
g3
Ntp2906
Rp2907
(dp2908
g86
g1
(g17
g3
Ntp2909
Rp2910
(dp2911
g21
F7.947285970050276e-08
sg22
I0
sg23
g24
sg25
F-0.0009765620343387127
sg26
F0.00048828101716935635
sbsg12
I1
sg13
I21
sg15
Nsg16
g1
(g17
g3
Ntp2912
Rp2913
(dp2914
g21
I0
sg22
I0
sg23
g24
sg25
I0
sg26
I0
sbsg102
g103
sg104
I1
sg105
g1
(g106
g3
Ntp2915
Rp2916
(dp2917
g110
g49
(g53
S'\xcc\x90^Bl\xe0\xd8\xbf'
p2918
tp2919
Rp2920
sg35
g1
(g36
g3
Ntp2921
Rp2922
(dp2923
g40
I01
sg41
I23
sg42
I-23
sg43
I-1
sbsg117
I-3260633
sbsg118
g550
sg120
I-10
sg121
g1
(g106
g3
Ntp2924
Rp2925
(dp2926
g110
g2920
sg35
g1
(g36
g3
Ntp2927
Rp2928
(dp2929
g40
I01
sg41
I23
sg42
I-23
sg43
I-1
sbsg117
I-3260633
sbsg73
g1
(g31
g3
Ntp2930
Rp2931
(dp2932
g35
g1
(g36
g3
Ntp2933
Rp2934
(dp2935
g40
I01
sg41
I20
sg42
I-10
sg43
I9
sbsg44
I323015
sg45
I-472558
sg46
S'Var6723'
p2936
sg48
g2883
sg59
g2886
sbsg46
S'Mult_x8[k]'
p2937
sg41
I22
sg136
g1
(g31
g3
Ntp2938
Rp2939
(dp2940
g35
g1
(g36
g3
Ntp2941
Rp2942
(dp2943
g40
I01
sg41
I20
sg42
I-8
sg43
I11
sbsg44
I303937
sg45
I-207754
sg46
g550
sg48
g49
(g53
S'\t&6\xb8R\\\x89\xc0'
p2944
tp2945
Rp2946
sg59
g49
(g53
S'\xe4us\x9e\x03\x8d\x92@'
p2947
tp2948
Rp2949
sbsg149
I0
sbag1
(g92
g3
Ntp2950
Rp2951
(dp2952
g86
g1
(g17
g3
Ntp2953
Rp2954
(dp2955
g21
F7.947285970023171e-08
sg22
I0
sg23
g24
sg25
F-0.0009765606373548508
sg26
F0.0004882803186774254
sbsg12
I1
sg13
I19
sg15
Nsg16
g1
(g17
g3
Ntp2956
Rp2957
(dp2958
g21
I0
sg22
I0
sg23
g24
sg25
I0
sg26
I0
sbsg102
g103
sg104
I2
sg105
g1
(g106
g3
Ntp2959
Rp2960
(dp2961
g110
g49
(g53
S'p\x8c\x13\x0f\xc3)\xe9?'
p2962
tp2963
Rp2964
sg35
g1
(g36
g3
Ntp2965
Rp2966
(dp2967
g40
I01
sg41
I19
sg42
I-18
sg43
I0
sbsg117
I206136
sbsg118
g168
sg120
I-10
sg121
g1
(g106
g3
Ntp2968
Rp2969
(dp2970
g110
g2964
sg35
g1
(g36
g3
Ntp2971
Rp2972
(dp2973
g40
I01
sg41
I19
sg42
I-18
sg43
I0
sbsg117
I206136
sbsg73
g1
(g31
g3
Ntp2974
Rp2975
(dp2976
g35
g1
(g36
g3
Ntp2977
Rp2978
(dp2979
g40
I01
sg41
I19
sg42
I-10
sg43
I8
sbsg44
I130446
sg45
I-190837
sg46
S'Var6724'
p2980
sg48
g2893
sg59
g2896
sbsg46
S'Mult_y1[k]'
p2981
sg41
I22
sg136
g1
(g31
g3
Ntp2982
Rp2983
(dp2984
g35
g1
(g36
g3
Ntp2985
Rp2986
(dp2987
g40
I01
sg41
I20
sg42
I-11
sg43
I8
sbsg44
I331776
sg45
I-485376
sg46
g168
sg48
g49
(g53
S'\x00\x00\x00\x00\x00\xa0m\xc0'
p2988
tp2989
Rp2990
sg59
g49
(g53
S'\x00\x00\x00\x00\x00@d@'
p2991
tp2992
Rp2993
sbsg149
I0
sbasg195
g2907
sbag1
(g92
g3
Ntp2994
Rp2995
(dp2996
g86
g1
(g17
g3
Ntp2997
Rp2998
(dp2999
g21
F7.947285970044855e-08
sg22
I0
sg23
g24
sg25
F-0.0009765615686774254
sg26
F0.0004882807843387127
sbsg12
I1
sg13
I20
sg15
Nsg16
g1
(g17
g3
Ntp3000
Rp3001
(dp3002
g21
I0
sg22
I0
sg23
g24
sg25
I0
sg26
I0
sbsg102
g103
sg104
I0
sg105
g1
(g106
g3
Ntp3003
Rp3004
(dp3005
g110
g49
(g53
S'`\xfa\x1c\xe10\xec\xc0?'
p3006
tp3007
Rp3008
sg35
g1
(g36
g3
Ntp3009
Rp3010
(dp3011
g40
I01
sg41
I21
sg42
I-22
sg43
I-2
sbsg117
I554520
sbsg118
g819
sg120
I-10
sg121
g1
(g106
g3
Ntp3012
Rp3013
(dp3014
g110
g3008
sg35
g1
(g36
g3
Ntp3015
Rp3016
(dp3017
g40
I01
sg41
I21
sg42
I-22
sg43
I-2
sbsg117
I554520
sbsg73
g1
(g31
g3
Ntp3018
Rp3019
(dp3020
g35
g1
(g36
g3
Ntp3021
Rp3022
(dp3023
g40
I01
sg41
I19
sg42
I-10
sg43
I8
sbsg44
I219672
sg45
I-167326
sg46
S'Var6722'
p3024
sg48
g2847
sg59
g2850
sbsg46
S'Mult_t1[k+1]'
p3025
sg41
I22
sg136
g1
(g31
g3
Ntp3026
Rp3027
(dp3028
g35
g1
(g36
g3
Ntp3029
Rp3030
(dp3031
g40
I01
sg41
I20
sg42
I-8
sg43
I11
sbsg44
I415392
sg45
I-316407
sg46
g819
sg48
g49
(g53
S'S\x17\xee\x7f\xdbO\x93\xc0'
p3032
tp3033
Rp3034
sg59
g49
(g53
S'\xf9$\x95\xaa\x7fZ\x99@'
p3035
tp3036
Rp3037
sbsg149
I0
sbasg195
g2907
sbsg196
g1
(g31
g3
Ntp3038
Rp3039
(dp3040
g35
g1
(g36
g3
Ntp3041
Rp3042
(dp3043
g40
I01
sg41
I20
sg42
I-8
sg43
I11
sbsg44
I168283
sg45
I-207681
sg46
S'Var6721'
p3044
sg48
g49
(g53
S'5I\x04\x11\x03Z\x89\xc0'
p3045
tp3046
Rp3047
sg59
g49
(g53
S'f\x9b\x0bg\xd9\x8a\x84@'
p3048
tp3049
Rp3050
sbsg204
I2
sba.