(lp0
ccopy_reg
_reconstructor
p1
(coSoP.oSoP_class
oSoP
p2
c__builtin__
object
p3
Ntp4
Rp5
(dp6
S'_Top'
p7
g1
(coSoP.Adder
Adder
p8
g3
Ntp9
Rp10
(dp11
S'_label'
p12
NsS'_rshift'
p13
(lp14
I2
aI0
asS'_result'
p15
NsS'_total_noise'
p16
(lp17
I0
aI0
asS'_top'
p18
I01
sS'_var_op'
p19
(lp20
g1
(coSoP.Variable
Variable
p21
g3
Ntp22
Rp23
(dp24
S'_FPF'
p25
g1
(coSoP.FPF
FPF
p26
g3
Ntp27
Rp28
(dp29
S'_signed'
p30
I01
sS'_wl'
p31
I32
sS'_lsb'
p32
I-20
sS'_msb'
p33
I11
sbsS'_integer_sup'
p34
I233632704
sS'_integer_inf'
p35
I-159698304
sS'_name'
p36
S'Var5'
p37
sS'_value_inf'
p38
cnumpy.core.multiarray
scalar
p39
(cnumpy
dtype
p40
(S'f8'
p41
I0
I1
tp42
Rp43
(I3
S'<'
p44
NNNI-1
I-1
I0
tp45
bS'\xa6V\xeb1\xaf\tc\xc0'
p46
tp47
Rp48
sS'_value_sup'
p49
g39
(g43
S'\x82\x83f\x0b\x05\xdak@'
p50
tp51
Rp52
sbag1
(g21
g3
Ntp53
Rp54
(dp55
g25
g28
sg34
I4248
sg35
I7560
sg36
S'Var6'
p56
sg38
g39
(g43
S'l\xac\xb0\x99\xa5\xee\x90\xc0'
p57
tp58
Rp59
sg49
g39
(g43
S'wT(\t?\xdf\x95@'
p60
tp61
Rp62
sbasS'_var_result'
p63
g1
(g21
g3
Ntp64
Rp65
(dp66
g25
g28
sg34
I233636952
sg35
I-159690744
sg36
S'Var7'
p67
sg38
g39
(g43
S'A\x17\xee\x7f\xdbO\x93\xc0'
p68
tp69
Rp70
sg49
g39
(g43
S'\xe7$\x95\xaa\x7fZ\x99@'
p71
tp72
Rp73
sbsg36
S'Add_0'
p74
sS'_int_err'
p75
(lp76
I0
aI0
asS'_total_error'
p77
g1
(coSoP.Error
Error
p78
g3
Ntp79
Rp80
(dp81
S'_variance'
p82
F0.0003255208333285964
sS'_sup'
p83
I0
sS'_mode'
p84
S'truncature'
p85
sS'_inf'
p86
cgmpy2
from_binary
p87
(S'\x04c\x00\x005\x00\x00\x00\x04\x00\x00\x00\x00\x00\x00\x00\x00\xc0\xff\xff'
p88
tp89
Rp90
sS'_mean'
p91
F0.03124988079071045
sbsS'_local_error'
p92
g1
(g78
g3
Ntp93
Rp94
(dp95
g82
F0.0003255208333285964
sg83
I0
sg84
g85
sg86
g87
(S'\x04c\x00\x005\x00\x00\x00\x04\x00\x00\x00\x00\x00\x00\x00\x00\xc0\xff\xff'
p96
tp97
Rp98
sg91
F0.03124988079071045
sbsS'_operands'
p99
(lp100
g1
(coSoP.Multiplier
Multiplier
p101
g3
Ntp102
Rp103
(dp104
g92
g1
(g78
g3
Ntp105
Rp106
(dp107
g82
F0.0
sg83
I0
sg84
g85
sg86
g87
(S'\x04\x00\x00\x005\x00\x00\x00'
p108
tp109
Rp110
sg91
F0.0
sbsg12
I1
sg13
I0
sg15
Nsg77
g1
(g78
g3
Ntp111
Rp112
(dp113
g82
I0
sg83
I0
sg84
g85
sg86
I0
sg91
I0
sbsS'_RndOff'
p114
S'RAM'
p115
sS'_index'
p116
I1
sS'_cst_bs'
p117
g1
(coSoP.Constant
Constant
p118
g3
Ntp119
Rp120
(dp121
S'_value'
p122
g39
(g43
S'\xa8\xbe\xbf\xe9\x9f\x15\xee\xbf'
p123
tp124
Rp125
sg25
g1
(g26
g3
Ntp126
Rp127
(dp128
g30
I01
sg31
I16
sg32
I-15
sg33
I0
sbsS'_integer'
p129
I-30806
sbsS'_var_name'
p130
S'u1[k]'
p131
sS'_lsb_final'
p132
I0
sS'_cst'
p133
g1
(g118
g3
Ntp134
Rp135
(dp136
g122
g125
sg25
g1
(g26
g3
Ntp137
Rp138
(dp139
g30
I01
sg31
I16
sg32
I-15
sg33
I0
sbsg129
I-30806
sbsg63
g1
(g21
g3
Ntp140
Rp141
(dp142
g25
g1
(g26
g3
Ntp143
Rp144
(dp145
g30
I01
sg31
I32
sg32
I-22
sg33
I9
sbsg34
I934530816
sg35
I-638793216
sg36
S'Var2'
p146
sg38
g48
sg49
g52
sbsg36
S'Mult_u1[k]'
p147
sg31
I32
sS'_var'
p148
g1
(g21
g3
Ntp149
Rp150
(dp151
g25
g1
(g26
g3
Ntp152
Rp153
(dp154
g30
I01
sg31
I16
sg32
I-7
sg33
I8
sbsg34
I20736
sg35
I-30336
sg36
g131
sg38
g39
(g43
S'\x00\x00\x00\x00\x00\xa0m\xc0'
p155
tp156
Rp157
sg49
g39
(g43
S'\x00\x00\x00\x00\x00@d@'
p158
tp159
Rp160
sbsS'_rshift_cst'
p161
I0
sbag1
(g101
g3
Ntp162
Rp163
(dp164
g92
g1
(g78
g3
Ntp165
Rp166
(dp167
g82
F0.0
sg83
I0
sg84
g85
sg86
g87
(S'\x04\x00\x00\x005\x00\x00\x00'
p168
tp169
Rp170
sg91
F0.0
sbsg12
I1
sg13
I0
sg15
Nsg77
g1
(g78
g3
Ntp171
Rp172
(dp173
g82
I0
sg83
I0
sg84
g85
sg86
I0
sg91
I0
sbsg114
g115
sg116
I0
sg117
g1
(g118
g3
Ntp174
Rp175
(dp176
g122
g39
(g43
S'\xc4\xdb\xccS}<\xf5?'
p177
tp178
Rp179
sg25
g1
(g26
g3
Ntp180
Rp181
(dp182
g30
I01
sg31
I16
sg32
I-14
sg33
I1
sbsg129
I21746
sbsg130
S'x1[k]'
p183
sg132
I0
sg133
g1
(g118
g3
Ntp184
Rp185
(dp186
g122
g179
sg25
g1
(g26
g3
Ntp187
Rp188
(dp189
g30
I01
sg31
I16
sg32
I-14
sg33
I1
sbsg129
I21746
sbsg63
g1
(g21
g3
Ntp190
Rp191
(dp192
g25
g1
(g26
g3
Ntp193
Rp194
(dp195
g30
I01
sg31
I32
sg32
I-18
sg33
I13
sbsg34
I366963750
sg35
I-284067998
sg36
S'Var1'
p196
sg38
g59
sg49
g62
sbsg36
S'Mult_x1[k]'
p197
sg31
I32
sg148
g1
(g21
g3
Ntp198
Rp199
(dp200
g25
g1
(g26
g3
Ntp201
Rp202
(dp203
g30
I01
sg31
I16
sg32
I-4
sg33
I11
sbsg34
I16875
sg35
I-13063
sg36
g183
sg38
g39
(g43
S'\xdb\xd0g\xe2\xae\x83\x89\xc0'
p204
tp205
Rp206
sg49
g39
(g43
S'\x91\xb8\xba\x15\xa0z\x90@'
p207
tp208
Rp209
sbsg161
I0
sbasS'_left'
p210
g103
sS'_local_noise'
p211
(lp212
I0
aI0
asbsS'_var_final'
p213
g1
(g21
g3
Ntp214
Rp215
(dp216
g25
g1
(g26
g3
Ntp217
Rp218
(dp219
g30
I01
sg31
I16
sg32
I-4
sg33
I11
sbsg34
I3565
sg35
I-2437
sg36
S'Var0'
p220
sg38
g70
sg49
g73
sbsS'_rshift_final'
p221
I16
sbag1
(g2
g3
Ntp222
Rp223
(dp224
g7
g1
(g101
g3
Ntp225
Rp226
(dp227
g92
g1
(g78
g3
Ntp228
Rp229
(dp230
g82
F0.0
sg83
I0
sg84
g85
sg86
g87
(S'\x04\x00\x00\x005\x00\x00\x00'
p231
tp232
Rp233
sg91
F0.0
sbsg12
I1
sg13
I0
sg15
Nsg77
g1
(g78
g3
Ntp234
Rp235
(dp236
g82
I0
sg83
I0
sg84
g85
sg86
I0
sg91
I0
sbsg114
g115
sg116
I0
sg117
g1
(g118
g3
Ntp237
Rp238
(dp239
g122
g39
(g43
S'u\xcb\xd3r\x00\x9a\xe7?'
p240
tp241
Rp242
sg25
g1
(g26
g3
Ntp243
Rp244
(dp245
g30
I01
sg31
I16
sg32
I-15
sg33
I0
sbsg129
I24168
sbsg130
S'x2[k]'
p246
sg132
I0
sg133
g1
(g118
g3
Ntp247
Rp248
(dp249
g122
g242
sg25
g1
(g26
g3
Ntp250
Rp251
(dp252
g30
I01
sg31
I16
sg32
I-15
sg33
I0
sbsg129
I24168
sbsg63
g1
(g21
g3
Ntp253
Rp254
(dp255
g25
g1
(g26
g3
Ntp256
Rp257
(dp258
g30
I01
sg31
I32
sg32
I-19
sg33
I12
sbsg34
I473306112
sg35
I-373613112
sg36
S'Var9'
p259
sg38
g39
(g43
S'\xe7(\xdd\xb9\xeeD\x86\xc0'
p260
tp261
Rp262
sg49
g39
(g43
S'\x12\x862s\t6\x8c@'
p263
tp264
Rp265
sbsg36
S'Mult_x2[k]'
p266
sg31
I32
sg148
g1
(g21
g3
Ntp267
Rp268
(dp269
g25
g1
(g26
g3
Ntp270
Rp271
(dp272
g30
I01
sg31
I16
sg32
I-4
sg33
I11
sbsg34
I19584
sg35
I-15459
sg36
g246
sg38
g39
(g43
S'\xe2\xdfRb\x901\x8e\xc0'
p273
tp274
Rp275
sg49
g39
(g43
S'#y\x05|\xf8\x1f\x93@'
p276
tp277
Rp278
sbsg161
I0
sbsg213
Nsg221
I0
sbag1
(g2
g3
Ntp279
Rp280
(dp281
g7
g1
(g101
g3
Ntp282
Rp283
(dp284
g92
g1
(g78
g3
Ntp285
Rp286
(dp287
g82
F0.0
sg83
I0
sg84
g85
sg86
g87
(S'\x04\x00\x00\x005\x00\x00\x00'
p288
tp289
Rp290
sg91
F0.0
sbsg12
I1
sg13
I0
sg15
Nsg77
g1
(g78
g3
Ntp291
Rp292
(dp293
g82
I0
sg83
I0
sg84
g85
sg86
I0
sg91
I0
sbsg114
g115
sg116
I0
sg117
g1
(g118
g3
Ntp294
Rp295
(dp296
g122
g39
(g43
S'y_\t\x01\xe5\xf9\xe6?'
p297
tp298
Rp299
sg25
g1
(g26
g3
Ntp300
Rp301
(dp302
g30
I01
sg31
I16
sg32
I-15
sg33
I0
sbsg129
I23528
sbsg130
S'x3[k]'
p303
sg132
I0
sg133
g1
(g118
g3
Ntp304
Rp305
(dp306
g122
g299
sg25
g1
(g26
g3
Ntp307
Rp308
(dp309
g30
I01
sg31
I16
sg32
I-15
sg33
I0
sbsg129
I23528
sbsg63
g1
(g21
g3
Ntp310
Rp311
(dp312
g25
g1
(g26
g3
Ntp313
Rp314
(dp315
g30
I01
sg31
I32
sg32
I-19
sg33
I12
sbsg34
I544437920
sg35
I-393952832
sg36
S'Var11'
p316
sg38
g39
(g43
S',\x80&\xb3\x1d{\x87\xc0'
p317
tp318
Rp319
sg49
g39
(g43
S'\xd9\xf6\x12\xd5\xb99\x90@'
p320
tp321
Rp322
sbsg36
S'Mult_x3[k]'
p323
sg31
I32
sg148
g1
(g21
g3
Ntp324
Rp325
(dp326
g25
g1
(g26
g3
Ntp327
Rp328
(dp329
g30
I01
sg31
I16
sg32
I-4
sg33
I11
sbsg34
I23140
sg35
I-16744
sg36
g303
sg38
g39
(g43
S'\xe2\xbc\x94\x8b\xfcY\x90\xc0'
p330
tp331
Rp332
sg49
g39
(g43
S'\xe6;^}\x18\x99\x96@'
p333
tp334
Rp335
sbsg161
I0
sbsg213
Nsg221
I0
sbag1
(g2
g3
Ntp336
Rp337
(dp338
g7
g1
(g101
g3
Ntp339
Rp340
(dp341
g92
g1
(g78
g3
Ntp342
Rp343
(dp344
g82
F0.0
sg83
I0
sg84
g85
sg86
g87
(S'\x04\x00\x00\x005\x00\x00\x00'
p345
tp346
Rp347
sg91
F0.0
sbsg12
I1
sg13
I0
sg15
Nsg77
g1
(g78
g3
Ntp348
Rp349
(dp350
g82
I0
sg83
I0
sg84
g85
sg86
I0
sg91
I0
sbsg114
g115
sg116
I0
sg117
g1
(g118
g3
Ntp351
Rp352
(dp353
g122
g39
(g43
S'\xbf)zgMF\xec?'
p354
tp355
Rp356
sg25
g1
(g26
g3
Ntp357
Rp358
(dp359
g30
I01
sg31
I16
sg32
I-15
sg33
I0
sbsg129
I28953
sbsg130
S'x4[k]'
p360
sg132
I0
sg133
g1
(g118
g3
Ntp361
Rp362
(dp363
g122
g356
sg25
g1
(g26
g3
Ntp364
Rp365
(dp366
g30
I01
sg31
I16
sg32
I-15
sg33
I0
sbsg129
I28953
sbsg63
g1
(g21
g3
Ntp367
Rp368
(dp369
g25
g1
(g26
g3
Ntp370
Rp371
(dp372
g30
I01
sg31
I32
sg32
I-19
sg33
I12
sbsg34
I707813991
sg35
I-483804630
sg36
S'Var13'
p373
sg38
g39
(g43
S'I\x96\\W\x86\xd6\x8c\xc0'
p374
tp375
Rp376
sg49
g39
(g43
S'\xb6\xdf\xb7\x1e.\x18\x95@'
p377
tp378
Rp379
sbsg36
S'Mult_x4[k]'
p380
sg31
I32
sg148
g1
(g21
g3
Ntp381
Rp382
(dp383
g25
g1
(g26
g3
Ntp384
Rp385
(dp386
g30
I01
sg31
I16
sg32
I-4
sg33
I11
sbsg34
I24447
sg35
I-16710
sg36
g360
sg38
g39
(g43
S'\x98\xf0\x1e\xc4\x9cQ\x90\xc0'
p387
tp388
Rp389
sg49
g39
(g43
S'vi\xe11\xb1\xdf\x97@'
p390
tp391
Rp392
sbsg161
I0
sbsg213
Nsg221
I0
sbag1
(g2
g3
Ntp393
Rp394
(dp395
g7
g1
(g101
g3
Ntp396
Rp397
(dp398
g92
g1
(g78
g3
Ntp399
Rp400
(dp401
g82
F0.0
sg83
I0
sg84
g85
sg86
g87
(S'\x04\x00\x00\x005\x00\x00\x00'
p402
tp403
Rp404
sg91
F0.0
sbsg12
I1
sg13
I0
sg15
Nsg77
g1
(g78
g3
Ntp405
Rp406
(dp407
g82
I0
sg83
I0
sg84
g85
sg86
I0
sg91
I0
sbsg114
g115
sg116
I0
sg117
g1
(g118
g3
Ntp408
Rp409
(dp410
g122
g39
(g43
S'\xfb1\x06\xdbq\x06\xe7?'
p411
tp412
Rp413
sg25
g1
(g26
g3
Ntp414
Rp415
(dp416
g30
I01
sg31
I16
sg32
I-15
sg33
I0
sbsg129
I23578
sbsg130
S'x5[k]'
p417
sg132
I0
sg133
g1
(g118
g3
Ntp418
Rp419
(dp420
g122
g413
sg25
g1
(g26
g3
Ntp421
Rp422
(dp423
g30
I01
sg31
I16
sg32
I-15
sg33
I0
sbsg129
I23578
sbsg63
g1
(g21
g3
Ntp424
Rp425
(dp426
g25
g1
(g26
g3
Ntp427
Rp428
(dp429
g30
I01
sg31
I32
sg32
I-19
sg33
I12
sbsg34
I515721594
sg35
I-368311938
sg36
S'Var15'
p430
sg38
g39
(g43
S'\xe8;=5\xcc\xf3\x85\xc0'
p431
tp432
Rp433
sg49
g39
(g43
S'\x80\x1fX\t>\xbd\x8e@'
p434
tp435
Rp436
sbsg36
S'Mult_x5[k]'
p437
sg31
I32
sg148
g1
(g21
g3
Ntp438
Rp439
(dp440
g25
g1
(g26
g3
Ntp441
Rp442
(dp443
g30
I01
sg31
I16
sg32
I-4
sg33
I11
sbsg34
I21873
sg35
I-15621
sg36
g417
sg38
g39
(g43
S'Y\xfb\x1b\xd6L\x82\x8e\xc0'
p444
tp445
Rp446
sg49
g39
(g43
S'\x9e\x97\x10,E\\\x95@'
p447
tp448
Rp449
sbsg161
I0
sbsg213
Nsg221
I0
sbag1
(g2
g3
Ntp450
Rp451
(dp452
g7
g1
(g101
g3
Ntp453
Rp454
(dp455
g92
g1
(g78
g3
Ntp456
Rp457
(dp458
g82
F0.0
sg83
I0
sg84
g85
sg86
g87
(S'\x04\x00\x00\x005\x00\x00\x00'
p459
tp460
Rp461
sg91
F0.0
sbsg12
I1
sg13
I0
sg15
Nsg77
g1
(g78
g3
Ntp462
Rp463
(dp464
g82
I0
sg83
I0
sg84
g85
sg86
I0
sg91
I0
sbsg114
g115
sg116
I0
sg117
g1
(g118
g3
Ntp465
Rp466
(dp467
g122
g39
(g43
S'\xa3\x97\xd7\x8fKk\xe8?'
p468
tp469
Rp470
sg25
g1
(g26
g3
Ntp471
Rp472
(dp473
g30
I01
sg31
I16
sg32
I-15
sg33
I0
sbsg129
I25005
sbsg130
S'x6[k]'
p474
sg132
I0
sg133
g1
(g118
g3
Ntp475
Rp476
(dp477
g122
g470
sg25
g1
(g26
g3
Ntp478
Rp479
(dp480
g30
I01
sg31
I16
sg32
I-15
sg33
I0
sbsg129
I25005
sbsg63
g1
(g21
g3
Ntp481
Rp482
(dp483
g25
g1
(g26
g3
Ntp484
Rp485
(dp486
g30
I01
sg31
I32
sg32
I-19
sg33
I12
sbsg34
I491398260
sg35
I-335892165
sg36
S'Var17'
p487
sg38
g39
(g43
S'\xfc2\xe3\xbb8\x05\x84\xc0'
p488
tp489
Rp490
sg49
g39
(g43
S'%\xae4h\x02J\x8d@'
p491
tp492
Rp493
sbsg36
S'Mult_x6[k]'
p494
sg31
I32
sg148
g1
(g21
g3
Ntp495
Rp496
(dp497
g25
g1
(g26
g3
Ntp498
Rp499
(dp500
g30
I01
sg31
I16
sg32
I-4
sg33
I11
sbsg34
I19652
sg35
I-13433
sg36
g474
sg38
g39
(g43
S'\xfb\xd3\x81\xb3V<\x8a\xc0'
p501
tp502
Rp503
sg49
g39
(g43
S'\xba\x85\x02\x9b\xe00\x93@'
p504
tp505
Rp506
sbsg161
I0
sbsg213
Nsg221
I0
sbag1
(g2
g3
Ntp507
Rp508
(dp509
g7
g1
(g101
g3
Ntp510
Rp511
(dp512
g92
g1
(g78
g3
Ntp513
Rp514
(dp515
g82
F0.0
sg83
I0
sg84
g85
sg86
g87
(S'\x04\x00\x00\x005\x00\x00\x00'
p516
tp517
Rp518
sg91
F0.0
sbsg12
I1
sg13
I0
sg15
Nsg77
g1
(g78
g3
Ntp519
Rp520
(dp521
g82
I0
sg83
I0
sg84
g85
sg86
I0
sg91
I0
sbsg114
g115
sg116
I0
sg117
g1
(g118
g3
Ntp522
Rp523
(dp524
g122
g39
(g43
S'k\x9b5\xa6\\\\\xe8?'
p525
tp526
Rp527
sg25
g1
(g26
g3
Ntp528
Rp529
(dp530
g30
I01
sg31
I16
sg32
I-15
sg33
I0
sbsg129
I24945
sbsg130
S'x7[k]'
p531
sg132
I0
sg133
g1
(g118
g3
Ntp532
Rp533
(dp534
g122
g527
sg25
g1
(g26
g3
Ntp535
Rp536
(dp537
g30
I01
sg31
I16
sg32
I-15
sg33
I0
sbsg129
I24945
sbsg63
g1
(g21
g3
Ntp538
Rp539
(dp540
g25
g1
(g26
g3
Ntp541
Rp542
(dp543
g30
I01
sg31
I32
sg32
I-19
sg33
I12
sbsg34
I445467810
sg35
I-304503615
sg36
S'Var19'
p544
sg38
g39
(g43
S'\xf3\x9d\x11r[&\x82\xc0'
p545
tp546
Rp547
sg49
g39
(g43
S'\x01\x8d\x8b\xd1r\x8d\x8a@'
p548
tp549
Rp550
sbsg36
S'Mult_x7[k]'
p551
sg31
I32
sg148
g1
(g21
g3
Ntp552
Rp553
(dp554
g25
g1
(g26
g3
Ntp555
Rp556
(dp557
g30
I01
sg31
I16
sg32
I-4
sg33
I11
sbsg34
I17858
sg35
I-12207
sg36
g531
sg38
g39
(g43
S'\xe9\xf1\x1f9d\xd7\x87\xc0'
p558
tp559
Rp560
sg49
g39
(g43
S'-\xff\x14\x92\x84p\x91@'
p561
tp562
Rp563
sbsg161
I0
sbsg213
Nsg221
I0
sbag1
(g2
g3
Ntp564
Rp565
(dp566
g7
g1
(g101
g3
Ntp567
Rp568
(dp569
g92
g1
(g78
g3
Ntp570
Rp571
(dp572
g82
F0.0
sg83
I0
sg84
g85
sg86
g87
(S'\x04\x00\x00\x005\x00\x00\x00'
p573
tp574
Rp575
sg91
F0.0
sbsg12
I1
sg13
I0
sg15
Nsg77
g1
(g78
g3
Ntp576
Rp577
(dp578
g82
I0
sg83
I0
sg84
g85
sg86
I0
sg91
I0
sbsg114
g115
sg116
I0
sg117
g1
(g118
g3
Ntp579
Rp580
(dp581
g122
g39
(g43
S'7M\xb6bl\xc8\xe0?'
p582
tp583
Rp584
sg25
g1
(g26
g3
Ntp585
Rp586
(dp587
g30
I01
sg31
I16
sg32
I-15
sg33
I0
sbsg129
I17186
sbsg130
S'x8[k]'
p588
sg132
I0
sg133
g1
(g118
g3
Ntp589
Rp590
(dp591
g122
g584
sg25
g1
(g26
g3
Ntp592
Rp593
(dp594
g30
I01
sg31
I16
sg32
I-15
sg33
I0
sbsg129
I17186
sbsg63
g1
(g21
g3
Ntp595
Rp596
(dp597
g25
g1
(g26
g3
Ntp598
Rp599
(dp600
g30
I01
sg31
I32
sg32
I-19
sg33
I12
sbsg34
I326465256
sg35
I-223160210
sg36
S'Var21'
p601
sg38
g39
(g43
S'\x8b\x95\xd9\x8d\x00\x9az\xc0'
p602
tp603
Rp604
sg49
g39
(g43
S'k\x9a\xfb\xf5cu\x83@'
p605
tp606
Rp607
sbsg36
S'Mult_x8[k]'
p608
sg31
I32
sg148
g1
(g21
g3
Ntp609
Rp610
(dp611
g25
g1
(g26
g3
Ntp612
Rp613
(dp614
g30
I01
sg31
I16
sg32
I-4
sg33
I11
sbsg34
I18996
sg35
I-12985
sg36
g588
sg38
g39
(g43
S'\t&6\xb8R\\\x89\xc0'
p615
tp616
Rp617
sg49
g39
(g43
S'\xe4us\x9e\x03\x8d\x92@'
p618
tp619
Rp620
sbsg161
I0
sbsg213
Nsg221
I0
sbag1
(g2
g3
Ntp621
Rp622
(dp623
g7
g1
(g8
g3
Ntp624
Rp625
(dp626
g12
Nsg13
(lp627
I1
aI0
asg15
Nsg16
(lp628
I0
aI0
asg18
I01
sg19
(lp629
g1
(g21
g3
Ntp630
Rp631
(dp632
g25
g1
(g26
g3
Ntp633
Rp634
(dp635
g30
I01
sg31
I32
sg32
I-20
sg33
I11
sbsg34
I746933918
sg35
I-696532208
sg36
S'Var79'
p636
sg38
g39
(g43
S'\xdb\xe4X\xe5-\xc2\x84\xc0'
p637
tp638
Rp639
sg49
g39
(g43
S"\xf8'\x11u\xa4B\x86@"
p640
tp641
Rp642
sbag1
(g21
g3
Ntp643
Rp644
(dp645
g25
g634
sg34
I0
sg35
I0
sg36
S'Var80'
p646
sg38
g39
(g43
S'\xe7(\xdd\xb9\xeeD\x86\xc0'
p647
tp648
Rp649
sg49
g39
(g43
S'\x11\x862s\t6\x8c@'
p650
tp651
Rp652
sbasg63
g1
(g21
g3
Ntp653
Rp654
(dp655
g25
g634
sg34
I746933918
sg35
I-696532208
sg36
S'Var81'
p656
sg38
g39
(g43
S'\xe1\x06\x9bO\x8e\x83\x95\xc0'
p657
tp658
Rp659
sg49
g39
(g43
S'\x04\xd7!\xf4V<\x99@'
p660
tp661
Rp662
sbsg36
S'Add_11'
p663
sg75
(lp664
I0
aI0
asg77
g1
(g78
g3
Ntp665
Rp666
(dp667
g82
F0.0003255208333285964
sg83
I0
sg84
g85
sg86
g87
(S'\x04c\x00\x005\x00\x00\x00\x04\x00\x00\x00\x00\x00\x00\x00\x00\xc0\xff\xff'
p668
tp669
Rp670
sg91
F0.03124988079071045
sbsg92
g1
(g78
g3
Ntp671
Rp672
(dp673
g82
F0.0003255208333143855
sg83
I0
sg84
g85
sg86
g87
(S'\x04c\x00\x005\x00\x00\x00\x04\x00\x00\x00\x00\x00\x00\x00\x00\x80\xff\xff'
p674
tp675
Rp676
sg91
F0.0312497615814209
sbsg99
(lp677
g1
(g8
g3
Ntp678
Rp679
(dp680
g12
Nsg13
(lp681
I0
aI0
asg15
Nsg16
(lp682
I0
aI0
asg18
I00
sg19
(lp683
g1
(g21
g3
Ntp684
Rp685
(dp686
g25
g1
(g26
g3
Ntp687
Rp688
(dp689
g30
I01
sg31
I32
sg32
I-21
sg33
I10
sbsg34
I982328136
sg35
I-721479400
sg36
S'Var64'
p690
sg38
g39
(g43
S':Y)\xb9\x87\x80u\xc0'
p691
tp692
Rp693
sg49
g39
(g43
S'6\xef`\xf7mF}@'
p694
tp695
Rp696
sbag1
(g21
g3
Ntp697
Rp698
(dp699
g25
g688
sg34
I511539700
sg35
I-671585016
sg36
S'Var65'
p700
sg38
g39
(g43
S'|p\x88\x11\xd4\x03t\xc0'
p701
tp702
Rp703
sg49
g39
(g43
S'r\xc1\x82\xe5\xb5}n@'
p704
tp705
Rp706
sbasg63
g1
(g21
g3
Ntp707
Rp708
(dp709
g25
g688
sg34
I1493867836
sg35
I-1393064416
sg36
S'Var66'
p710
sg38
g639
sg49
g642
sbsg36
S'Add_8'
p711
sg75
(lp712
I0
aI0
asg77
g1
(g78
g3
Ntp713
Rp714
(dp715
g82
F1.4210854715202004e-14
sg83
I0
sg84
g85
sg86
g87
(S'\x04c\x00\x005\x00\x00\x00\x15\x00\x00\x00\x00\x00\x00\x00\x00\x00\x00\x80'
p716
tp717
Rp718
sg91
F1.1920928955078125e-07
sbsg92
g1
(g78
g3
Ntp719
Rp720
(dp721
g82
I0
sg83
I0
sg84
g85
sg86
I0
sg91
I0
sbsg99
(lp722
g1
(g8
g3
Ntp723
Rp724
(dp725
g12
Nsg13
(lp726
I1
aI0
asg15
Nsg16
(lp727
I0
aI0
asg18
I00
sg19
(lp728
g1
(g21
g3
Ntp729
Rp730
(dp731
g25
g1
(g26
g3
Ntp732
Rp733
(dp734
g30
I01
sg31
I32
sg32
I-21
sg33
I10
sbsg34
I430043136
sg35
I-293953536
sg36
S'Var34'
p735
sg38
g39
(g43
S'ou~\x10c\x85a\xc0'
p736
tp737
Rp738
sg49
g39
(g43
S'\xe0\x85\xaf{\xf4\xa1i@'
p739
tp740
Rp741
sbag1
(g21
g3
Ntp742
Rp743
(dp744
g25
g733
sg34
I552285000
sg35
I-427525864
sg36
S'Var35'
p745
sg38
g39
(g43
S'\x04=\xd4a\xac{i\xc0'
p746
tp747
Rp748
sg49
g39
(g43
S'F,\x89\xb9sup@'
p749
tp750
Rp751
sbasg63
g1
(g21
g3
Ntp752
Rp753
(dp754
g25
g733
sg34
I982328136
sg35
I-721479400
sg36
S'Var36'
p755
sg38
g693
sg49
g696
sbsg36
S'Add_2'
p756
sg75
(lp757
I0
aI0
asg77
g1
(g78
g3
Ntp758
Rp759
(dp760
g82
F1.4210854715202004e-14
sg83
I0
sg84
g85
sg86
g87
(S'\x04c\x00\x005\x00\x00\x00\x15\x00\x00\x00\x00\x00\x00\x00\x00\x00\x00\x80'
p761
tp762
Rp763
sg91
F1.1920928955078125e-07
sbsg92
g1
(g78
g3
Ntp764
Rp765
(dp766
g82
F1.4210854715202004e-14
sg83
I0
sg84
g85
sg86
g87
(S'\x04c\x00\x005\x00\x00\x00\x15\x00\x00\x00\x00\x00\x00\x00\x00\x00\x00\x80'
p767
tp768
Rp769
sg91
F1.1920928955078125e-07
sbsg99
(lp770
g1
(g101
g3
Ntp771
Rp772
(dp773
g92
g1
(g78
g3
Ntp774
Rp775
(dp776
g82
F0.0
sg83
I0
sg84
g85
sg86
g87
(S'\x04\x00\x00\x005\x00\x00\x00'
p777
tp778
Rp779
sg91
F0.0
sbsg12
I1
sg13
I0
sg15
Nsg77
g1
(g78
g3
Ntp780
Rp781
(dp782
g82
I0
sg83
I0
sg84
g85
sg86
I0
sg91
I0
sbsg114
g115
sg116
I3
sg117
g1
(g118
g3
Ntp783
Rp784
(dp785
g122
g39
(g43
S'j\xb6\xb1\xd7\x04\xb0\xeb\xbf'
p786
tp787
Rp788
sg25
g1
(g26
g3
Ntp789
Rp790
(dp791
g30
I01
sg31
I16
sg32
I-15
sg33
I0
sbsg129
I-28352
sbsg130
S'u1[k]'
p792
sg132
I0
sg133
g1
(g118
g3
Ntp793
Rp794
(dp795
g122
g788
sg25
g1
(g26
g3
Ntp796
Rp797
(dp798
g30
I01
sg31
I16
sg32
I-15
sg33
I0
sbsg129
I-28352
sbsg63
g1
(g21
g3
Ntp799
Rp800
(dp801
g25
g1
(g26
g3
Ntp802
Rp803
(dp804
g30
I01
sg31
I32
sg32
I-22
sg33
I9
sbsg34
I860086272
sg35
I-587907072
sg36
S'Var26'
p805
sg38
g738
sg49
g741
sbsg36
S'Mult_u1[k]'
p806
sg31
I32
sg148
g1
(g21
g3
Ntp807
Rp808
(dp809
g25
g1
(g26
g3
Ntp810
Rp811
(dp812
g30
I01
sg31
I16
sg32
I-7
sg33
I8
sbsg34
I20736
sg35
I-30336
sg36
g792
sg38
g39
(g43
S'\x00\x00\x00\x00\x00\xa0m\xc0'
p813
tp814
Rp815
sg49
g39
(g43
S'\x00\x00\x00\x00\x00@d@'
p816
tp817
Rp818
sbsg161
I0
sbag1
(g101
g3
Ntp819
Rp820
(dp821
g92
g1
(g78
g3
Ntp822
Rp823
(dp824
g82
F0.0
sg83
I0
sg84
g85
sg86
g87
(S'\x04\x00\x00\x005\x00\x00\x00'
p825
tp826
Rp827
sg91
F0.0
sbsg12
I1
sg13
I0
sg15
Nsg77
g1
(g78
g3
Ntp828
Rp829
(dp830
g82
I0
sg83
I0
sg84
g85
sg86
I0
sg91
I0
sbsg114
g115
sg116
I2
sg117
g1
(g118
g3
Ntp831
Rp832
(dp833
g122
g39
(g43
S'\xa6}\x8dE\xf4\xf5\xcf?'
p834
tp835
Rp836
sg25
g1
(g26
g3
Ntp837
Rp838
(dp839
g30
I01
sg31
I16
sg32
I-17
sg33
I-2
sbsg129
I32728
sbsg130
S'x1[k]'
p840
sg132
I0
sg133
g1
(g118
g3
Ntp841
Rp842
(dp843
g122
g836
sg25
g1
(g26
g3
Ntp844
Rp845
(dp846
g30
I01
sg31
I16
sg32
I-17
sg33
I-2
sbsg129
I32728
sbsg63
g1
(g21
g3
Ntp847
Rp848
(dp849
g25
g1
(g26
g3
Ntp850
Rp851
(dp852
g30
I01
sg31
I32
sg32
I-21
sg33
I10
sbsg34
I552285000
sg35
I-427525864
sg36
S'Var25'
p853
sg38
g748
sg49
g751
sbsg36
S'Mult_x1[k]'
p854
sg31
I32
sg148
g1
(g21
g3
Ntp855
Rp856
(dp857
g25
g1
(g26
g3
Ntp858
Rp859
(dp860
g30
I01
sg31
I16
sg32
I-4
sg33
I11
sbsg34
I16875
sg35
I-13063
sg36
g840
sg38
g39
(g43
S'\xdb\xd0g\xe2\xae\x83\x89\xc0'
p861
tp862
Rp863
sg49
g39
(g43
S'\x91\xb8\xba\x15\xa0z\x90@'
p864
tp865
Rp866
sbsg161
I0
sbasg210
g772
sg211
(lp867
I0
aI0
asbag1
(g101
g3
Ntp868
Rp869
(dp870
g92
g1
(g78
g3
Ntp871
Rp872
(dp873
g82
F0.0
sg83
I0
sg84
g85
sg86
g87
(S'\x04\x00\x00\x005\x00\x00\x00'
p874
tp875
Rp876
sg91
F0.0
sbsg12
I1
sg13
I0
sg15
Nsg77
g1
(g78
g3
Ntp877
Rp878
(dp879
g82
I0
sg83
I0
sg84
g85
sg86
I0
sg91
I0
sbsg114
g115
sg116
I0
sg117
g1
(g118
g3
Ntp880
Rp881
(dp882
g122
g39
(g43
S'\xc0\xca\xf3\xb0\rC\xc9\xbf'
p883
tp884
Rp885
sg25
g1
(g26
g3
Ntp886
Rp887
(dp888
g30
I01
sg31
I16
sg32
I-17
sg33
I-2
sbsg129
I-25868
sbsg130
S't1[k+1]'
p889
sg132
I0
sg133
g1
(g118
g3
Ntp890
Rp891
(dp892
g122
g885
sg25
g1
(g26
g3
Ntp893
Rp894
(dp895
g30
I01
sg31
I16
sg32
I-17
sg33
I-2
sbsg129
I-25868
sbsg63
g1
(g21
g3
Ntp896
Rp897
(dp898
g25
g1
(g26
g3
Ntp899
Rp900
(dp901
g30
I01
sg31
I32
sg32
I-21
sg33
I10
sbsg34
I511539700
sg35
I-671585016
sg36
S'Var23'
p902
sg38
g703
sg49
g706
sbsg36
S'Mult_t1[k+1]'
p903
sg31
I32
sg148
g1
(g21
g3
Ntp904
Rp905
(dp906
g25
g1
(g26
g3
Ntp907
Rp908
(dp909
g30
I01
sg31
I16
sg32
I-4
sg33
I11
sbsg34
I25962
sg35
I-19775
sg36
g889
sg38
g39
(g43
S'S\x17\xee\x7f\xdbO\x93\xc0'
p910
tp911
Rp912
sg49
g39
(g43
S'\xf9$\x95\xaa\x7fZ\x99@'
p913
tp914
Rp915
sbsg161
I0
sbasg210
g772
sg211
(lp916
I0
aI0
asbag1
(g101
g3
Ntp917
Rp918
(dp919
g92
g1
(g78
g3
Ntp920
Rp921
(dp922
g82
F0.0
sg83
I0
sg84
g85
sg86
g87
(S'\x04\x00\x00\x005\x00\x00\x00'
p923
tp924
Rp925
sg91
F0.0
sbsg12
I1
sg13
I0
sg15
Nsg77
g1
(g78
g3
Ntp926
Rp927
(dp928
g82
I0
sg83
I0
sg84
g85
sg86
I0
sg91
I0
sbsg114
g115
sg116
I1
sg117
g1
(g118
g3
Ntp929
Rp930
(dp931
g122
g39
(g43
S'\x00\x00\x00\x00\x00\x00\xf0?'
p932
tp933
Rp934
sg25
g1
(g26
g3
Ntp935
Rp936
(dp937
g30
I01
sg31
I16
sg32
I-14
sg33
I1
sbsg129
I16384
sbsg130
S't2[k+1]'
p938
sg132
I0
sg133
g1
(g118
g3
Ntp939
Rp940
(dp941
g122
g934
sg25
g1
(g26
g3
Ntp942
Rp943
(dp944
g30
I01
sg31
I16
sg32
I-14
sg33
I1
sbsg129
I16384
sbsg63
g1
(g21
g3
Ntp945
Rp946
(dp947
g25
g1
(g26
g3
Ntp948
Rp949
(dp950
g30
I01
sg31
I32
sg32
I-19
sg33
I12
sbsg34
I473300992
sg35
I-373620736
sg36
S'Var24'
p951
sg38
g649
sg49
g652
sbsg36
S'Mult_t2[k+1]'
p952
sg31
I32
sg148
g1
(g21
g3
Ntp953
Rp954
(dp955
g25
g1
(g26
g3
Ntp956
Rp957
(dp958
g30
I01
sg31
I16
sg32
I-5
sg33
I10
sbsg34
I28888
sg35
I-22804
sg36
g938
sg38
g39
(g43
S'\xe7(\xdd\xb9\xeeD\x86\xc0'
p959
tp960
Rp961
sg49
g39
(g43
S'\x11\x862s\t6\x8c@'
p962
tp963
Rp964
sbsg161
I0
sbasg210
g772
sg211
(lp965
I0
aI0
asbsg213
g1
(g21
g3
Ntp966
Rp967
(dp968
g25
g1
(g26
g3
Ntp969
Rp970
(dp971
g30
I01
sg31
I16
sg32
I-4
sg33
I11
sbsg34
I11397
sg35
I-10629
sg36
S'Var22'
p972
sg38
g39
(g43
S'\xe1\x06\x9bO\x8e\x83\x95\xc0'
p973
tp974
Rp975
sg49
g39
(g43
S'\x04\xd7!\xf4V<\x99@'
p976
tp977
Rp978
sbsg221
I16
sbag1
(g2
g3
Ntp979
Rp980
(dp981
g7
g1
(g8
g3
Ntp982
Rp983
(dp984
g12
Nsg13
(lp985
I0
aI0
asg15
Nsg16
(lp986
I0
aI0
asg18
I01
sg19
(lp987
g1
(g21
g3
Ntp988
Rp989
(dp990
g25
g1
(g26
g3
Ntp991
Rp992
(dp993
g30
I01
sg31
I32
sg32
I-20
sg33
I11
sbsg34
I378357175
sg35
I-298804643
sg36
S'Var129'
p994
sg38
g39
(g43
S'\x12\xaa\xc3\x98j1\x90\xc0'
p995
tp996
Rp997
sg49
g39
(g43
S'&\xabM\xf3\x08\xdd\x95@'
p998
tp999
Rp1000
sbag1
(g21
g3
Ntp1001
Rp1002
(dp1003
g25
g992
sg34
I352291625
sg35
I-462513030
sg36
S'Var130'
p1004
sg38
g39
(g43
S'\x816xa[\x91{\xc0'
p1005
tp1006
Rp1007
sg49
g39
(g43
S'\xf7V\xc0"\xa3\xfft@'
p1008
tp1009
Rp1010
sbasg63
g1
(g21
g3
Ntp1011
Rp1012
(dp1013
g25
g992
sg34
I730648800
sg35
I-761317673
sg36
S'Var131'
p1014
sg38
g39
(g43
S'\xb2\xb7!q\xc1\x15\x97\xc0'
p1015
tp1016
Rp1017
sg49
g39
(g43
S'\xe4\xc0\xfd\xbb\xf1\x1c\x9b@'
p1018
tp1019
Rp1020
sbsg36
S'Add_20'
p1021
sg75
(lp1022
I0
aI0
asg77
g1
(g78
g3
Ntp1023
Rp1024
(dp1025
g82
F0.0003255208333333333
sg83
I0
sg84
g85
sg86
g87
(S'\x04c\x00\x005\x00\x00\x00\x04\x00\x00\x00\x00\x00\x00\x00\xe0\xff\xff\xff'
p1026
tp1027
Rp1028
sg91
F0.031249999767169356
sbsg92
g1
(g78
g3
Ntp1029
Rp1030
(dp1031
g82
F0.0003255208332575421
sg83
I0
sg84
g85
sg86
g87
(S'\x04c\x00\x005\x00\x00\x00\x04\x00\x00\x00\x00\x00\x00\x00\x00\x00\xff\xff'
p1032
tp1033
Rp1034
sg91
F0.031249523162841797
sbsg99
(lp1035
g1
(g8
g3
Ntp1036
Rp1037
(dp1038
g12
Nsg13
(lp1039
I0
aI0
asg15
Nsg16
(lp1040
I0
aI0
asg18
I00
sg19
(lp1041
g1
(g21
g3
Ntp1042
Rp1043
(dp1044
g25
g1
(g26
g3
Ntp1045
Rp1046
(dp1047
g30
I01
sg31
I32
sg32
I-20
sg33
I11
sbsg34
I378357175
sg35
I-298804643
sg36
S'Var124'
p1048
sg38
g39
(g43
S'\x0e\xa8\xc1\xfcn\xcfq\xc0'
p1049
tp1050
Rp1051
sg49
g39
(g43
S'S\xd1\xeax<\x8dv@'
p1052
tp1053
Rp1054
sbag1
(g21
g3
Ntp1055
Rp1056
(dp1057
g25
g1046
sg34
I0
sg35
I0
sg36
S'Var125'
p1058
sg38
g39
(g43
S'\x1c\x80&\xb3\x1d{\x87\xc0'
p1059
tp1060
Rp1061
sg49
g39
(g43
S'\xd1\xf6\x12\xd5\xb99\x90@'
p1062
tp1063
Rp1064
sbasg63
g1
(g21
g3
Ntp1065
Rp1066
(dp1067
g25
g1046
sg34
I378357175
sg35
I-298804643
sg36
S'Var126'
p1068
sg38
g997
sg49
g1000
sbsg36
S'Add_19'
p1069
sg75
(lp1070
I0
aI0
asg77
g1
(g78
g3
Ntp1071
Rp1072
(dp1073
g82
F7.579120707770781e-14
sg83
I0
sg84
g85
sg86
g87
(S'\x04c\x00\x005\x00\x00\x00\x14\x00\x00\x00\x00\x00\x00\x00\x00\x00\xe0\xff'
p1074
tp1075
Rp1076
sg91
F4.7660432755947113e-07
sbsg92
g1
(g78
g3
Ntp1077
Rp1078
(dp1079
g82
I0
sg83
I0
sg84
g85
sg86
I0
sg91
I0
sbsg99
(lp1080
g1
(g8
g3
Ntp1081
Rp1082
(dp1083
g12
Nsg13
(lp1084
I11
aI0
asg15
Nsg16
(lp1085
I0
aI0
asg18
I00
sg19
(lp1086
g1
(g21
g3
Ntp1087
Rp1088
(dp1089
g25
g1
(g26
g3
Ntp1090
Rp1091
(dp1092
g30
I01
sg31
I32
sg32
I-20
sg33
I11
sbsg34
I209719
sg35
I-306812
sg36
S'Var114'
p1093
sg38
g39
(g43
S'\xa0\xbd~q\xf4\xb9\xd2\xbf'
p1094
tp1095
Rp1096
sg49
g39
(g43
S'\x80\xa8|\xd5\xc2\x99\xc9?'
p1097
tp1098
Rp1099
sbag1
(g21
g3
Ntp1100
Rp1101
(dp1102
g25
g1091
sg34
I378147456
sg35
I-298497831
sg36
S'Var115'
p1103
sg38
g39
(g43
S'_H\xa5\x7f\xc0\xcaq\xc0'
p1104
tp1105
Rp1106
sg49
g39
(g43
S'\xbe!\x90@\t\x8av@'
p1107
tp1108
Rp1109
sbasg63
g1
(g21
g3
Ntp1110
Rp1111
(dp1112
g25
g1091
sg34
I378357175
sg35
I-298804643
sg36
S'Var116'
p1113
sg38
g1051
sg49
g1054
sbsg36
S'Add_17'
p1114
sg75
(lp1115
I0
aI0
asg77
g1
(g78
g3
Ntp1116
Rp1117
(dp1118
g82
F7.579120707770781e-14
sg83
I0
sg84
g85
sg86
g87
(S'\x04c\x00\x005\x00\x00\x00\x14\x00\x00\x00\x00\x00\x00\x00\x00\x00\xe0\xff'
p1119
tp1120
Rp1121
sg91
F4.7660432755947113e-07
sbsg92
g1
(g78
g3
Ntp1122
Rp1123
(dp1124
g82
F7.579120707770781e-14
sg83
I0
sg84
g85
sg86
g87
(S'\x04c\x00\x005\x00\x00\x00\x14\x00\x00\x00\x00\x00\x00\x00\x00\x00\xe0\xff'
p1125
tp1126
Rp1127
sg91
F4.7660432755947113e-07
sbsg99
(lp1128
g1
(g101
g3
Ntp1129
Rp1130
(dp1131
g92
g1
(g78
g3
Ntp1132
Rp1133
(dp1134
g82
F0.0
sg83
I0
sg84
g85
sg86
g87
(S'\x04\x00\x00\x005\x00\x00\x00'
p1135
tp1136
Rp1137
sg91
F0.0
sbsg12
I1
sg13
I0
sg15
Nsg77
g1
(g78
g3
Ntp1138
Rp1139
(dp1140
g82
I0
sg83
I0
sg84
g85
sg86
I0
sg91
I0
sbsg114
g115
sg116
I3
sg117
g1
(g118
g3
Ntp1141
Rp1142
(dp1143
g122
g39
(g43
S'\x00  \xc5G:T?'
p1144
tp1145
Rp1146
sg25
g1
(g26
g3
Ntp1147
Rp1148
(dp1149
g30
I01
sg31
I16
sg32
I-24
sg33
I-9
sbsg129
I20713
sbsg130
S'u1[k]'
p1150
sg132
I0
sg133
g1
(g118
g3
Ntp1151
Rp1152
(dp1153
g122
g1146
sg25
g1
(g26
g3
Ntp1154
Rp1155
(dp1156
g30
I01
sg31
I16
sg32
I-24
sg33
I-9
sbsg129
I20713
sbsg63
g1
(g21
g3
Ntp1157
Rp1158
(dp1159
g25
g1
(g26
g3
Ntp1160
Rp1161
(dp1162
g30
I01
sg31
I32
sg32
I-31
sg33
I0
sbsg34
I429504768
sg35
I-628349568
sg36
S'Var106'
p1163
sg38
g1096
sg49
g1099
sbsg36
S'Mult_u1[k]'
p1164
sg31
I32
sg148
g1
(g21
g3
Ntp1165
Rp1166
(dp1167
g25
g1
(g26
g3
Ntp1168
Rp1169
(dp1170
g30
I01
sg31
I16
sg32
I-7
sg33
I8
sbsg34
I20736
sg35
I-30336
sg36
g1150
sg38
g39
(g43
S'\x00\x00\x00\x00\x00\xa0m\xc0'
p1171
tp1172
Rp1173
sg49
g39
(g43
S'\x00\x00\x00\x00\x00@d@'
p1174
tp1175
Rp1176
sbsg161
I0
sbag1
(g101
g3
Ntp1177
Rp1178
(dp1179
g92
g1
(g78
g3
Ntp1180
Rp1181
(dp1182
g82
F0.0
sg83
I0
sg84
g85
sg86
g87
(S'\x04\x00\x00\x005\x00\x00\x00'
p1183
tp1184
Rp1185
sg91
F0.0
sbsg12
I1
sg13
I0
sg15
Nsg77
g1
(g78
g3
Ntp1186
Rp1187
(dp1188
g82
I0
sg83
I0
sg84
g85
sg86
I0
sg91
I0
sbsg114
g115
sg116
I2
sg117
g1
(g118
g3
Ntp1189
Rp1190
(dp1191
g122
g39
(g43
S'\xa0O\\\xac?\xdb\xd2?'
p1192
tp1193
Rp1194
sg25
g1
(g26
g3
Ntp1195
Rp1196
(dp1197
g30
I01
sg31
I16
sg32
I-16
sg33
I-1
sbsg129
I19309
sbsg130
S'x2[k]'
p1198
sg132
I0
sg133
g1
(g118
g3
Ntp1199
Rp1200
(dp1201
g122
g1194
sg25
g1
(g26
g3
Ntp1202
Rp1203
(dp1204
g30
I01
sg31
I16
sg32
I-16
sg33
I-1
sbsg129
I19309
sbsg63
g1
(g21
g3
Ntp1205
Rp1206
(dp1207
g25
g1
(g26
g3
Ntp1208
Rp1209
(dp1210
g30
I01
sg31
I32
sg32
I-20
sg33
I11
sbsg34
I378147456
sg35
I-298497831
sg36
S'Var105'
p1211
sg38
g1106
sg49
g1109
sbsg36
S'Mult_x2[k]'
p1212
sg31
I32
sg148
g1
(g21
g3
Ntp1213
Rp1214
(dp1215
g25
g1
(g26
g3
Ntp1216
Rp1217
(dp1218
g30
I01
sg31
I16
sg32
I-4
sg33
I11
sbsg34
I19584
sg35
I-15459
sg36
g1198
sg38
g39
(g43
S'\xe2\xdfRb\x901\x8e\xc0'
p1219
tp1220
Rp1221
sg49
g39
(g43
S'#y\x05|\xf8\x1f\x93@'
p1222
tp1223
Rp1224
sbsg161
I0
sbasg210
g1130
sg211
(lp1225
I0
aI0
asbag1
(g101
g3
Ntp1226
Rp1227
(dp1228
g92
g1
(g78
g3
Ntp1229
Rp1230
(dp1231
g82
F0.0
sg83
I0
sg84
g85
sg86
g87
(S'\x04\x00\x00\x005\x00\x00\x00'
p1232
tp1233
Rp1234
sg91
F0.0
sbsg12
I1
sg13
I0
sg15
Nsg77
g1
(g78
g3
Ntp1235
Rp1236
(dp1237
g82
I0
sg83
I0
sg84
g85
sg86
I0
sg91
I0
sbsg114
g115
sg116
I1
sg117
g1
(g118
g3
Ntp1238
Rp1239
(dp1240
g122
g39
(g43
S'\x00\x00\x00\x00\x00\x00\xf0?'
p1241
tp1242
Rp1243
sg25
g1
(g26
g3
Ntp1244
Rp1245
(dp1246
g30
I01
sg31
I16
sg32
I-14
sg33
I1
sbsg129
I16384
sbsg130
S't3[k+1]'
p1247
sg132
I0
sg133
g1
(g118
g3
Ntp1248
Rp1249
(dp1250
g122
g1243
sg25
g1
(g26
g3
Ntp1251
Rp1252
(dp1253
g30
I01
sg31
I16
sg32
I-14
sg33
I1
sbsg129
I16384
sbsg63
g1
(g21
g3
Ntp1254
Rp1255
(dp1256
g25
g1
(g26
g3
Ntp1257
Rp1258
(dp1259
g30
I01
sg31
I32
sg32
I-18
sg33
I13
sbsg34
I272220160
sg35
I-196968448
sg36
S'Var104'
p1260
sg38
g1061
sg49
g1064
sbsg36
S'Mult_t3[k+1]'
p1261
sg31
I32
sg148
g1
(g21
g3
Ntp1262
Rp1263
(dp1264
g25
g1
(g26
g3
Ntp1265
Rp1266
(dp1267
g30
I01
sg31
I16
sg32
I-4
sg33
I11
sbsg34
I16615
sg35
I-12022
sg36
g1247
sg38
g39
(g43
S'\x1c\x80&\xb3\x1d{\x87\xc0'
p1268
tp1269
Rp1270
sg49
g39
(g43
S'\xd1\xf6\x12\xd5\xb99\x90@'
p1271
tp1272
Rp1273
sbsg161
I0
sbasg210
g1130
sg211
(lp1274
I0
aI0
asbag1
(g101
g3
Ntp1275
Rp1276
(dp1277
g92
g1
(g78
g3
Ntp1278
Rp1279
(dp1280
g82
F0.0
sg83
I0
sg84
g85
sg86
g87
(S'\x04\x00\x00\x005\x00\x00\x00'
p1281
tp1282
Rp1283
sg91
F0.0
sbsg12
I1
sg13
I0
sg15
Nsg77
g1
(g78
g3
Ntp1284
Rp1285
(dp1286
g82
I0
sg83
I0
sg84
g85
sg86
I0
sg91
I0
sbsg114
g115
sg116
I0
sg117
g1
(g118
g3
Ntp1287
Rp1288
(dp1289
g122
g39
(g43
S'\x10\x81\x1d\x17\xbbe\xd1\xbf'
p1290
tp1291
Rp1292
sg25
g1
(g26
g3
Ntp1293
Rp1294
(dp1295
g30
I01
sg31
I16
sg32
I-16
sg33
I-1
sbsg129
I-17815
sbsg130
S't1[k+1]'
p1296
sg132
I0
sg133
g1
(g118
g3
Ntp1297
Rp1298
(dp1299
g122
g1292
sg25
g1
(g26
g3
Ntp1300
Rp1301
(dp1302
g30
I01
sg31
I16
sg32
I-16
sg33
I-1
sbsg129
I-17815
sbsg63
g1
(g21
g3
Ntp1303
Rp1304
(dp1305
g25
g1
(g26
g3
Ntp1306
Rp1307
(dp1308
g30
I01
sg31
I32
sg32
I-20
sg33
I11
sbsg34
I352291625
sg35
I-462513030
sg36
S'Var103'
p1309
sg38
g1007
sg49
g1010
sbsg36
S'Mult_t1[k+1]'
p1310
sg31
I32
sg148
g1
(g21
g3
Ntp1311
Rp1312
(dp1313
g25
g1
(g26
g3
Ntp1314
Rp1315
(dp1316
g30
I01
sg31
I16
sg32
I-4
sg33
I11
sbsg34
I25962
sg35
I-19775
sg36
g1296
sg38
g39
(g43
S'S\x17\xee\x7f\xdbO\x93\xc0'
p1317
tp1318
Rp1319
sg49
g39
(g43
S'\xf9$\x95\xaa\x7fZ\x99@'
p1320
tp1321
Rp1322
sbsg161
I0
sbasg210
g1130
sg211
(lp1323
I0
aI0
asbsg213
g1
(g21
g3
Ntp1324
Rp1325
(dp1326
g25
g1
(g26
g3
Ntp1327
Rp1328
(dp1329
g30
I01
sg31
I16
sg32
I-4
sg33
I11
sbsg34
I11148
sg35
I-11617
sg36
S'Var102'
p1330
sg38
g39
(g43
S'\xb2\xb7!q\xc1\x15\x97\xc0'
p1331
tp1332
Rp1333
sg49
g39
(g43
S'\xe4\xc0\xfd\xbb\xf1\x1c\x9b@'
p1334
tp1335
Rp1336
sbsg221
I16
sbag1
(g2
g3
Ntp1337
Rp1338
(dp1339
g7
g1
(g8
g3
Ntp1340
Rp1341
(dp1342
g12
Nsg13
(lp1343
I1
aI0
asg15
Nsg16
(lp1344
I0
aI0
asg18
I01
sg19
(lp1345
g1
(g21
g3
Ntp1346
Rp1347
(dp1348
g25
g1
(g26
g3
Ntp1349
Rp1350
(dp1351
g30
I01
sg31
I32
sg32
I-20
sg33
I11
sbsg34
I609230250
sg35
I-638024604
sg36
S'Var189'
p1352
sg38
g39
(g43
S'\xae\xf2\xbf\xed\xbe\x03\x83\xc0'
p1353
tp1354
Rp1355
sg49
g39
(g43
S'\x92\xc7?\xeb (\x82@'
p1356
tp1357
Rp1358
sbag1
(g21
g3
Ntp1359
Rp1360
(dp1361
g25
g1350
sg34
I0
sg35
I0
sg36
S'Var190'
p1362
sg38
g39
(g43
S'D\x96\\W\x86\xd6\x8c\xc0'
p1363
tp1364
Rp1365
sg49
g39
(g43
S'\xb4\xdf\xb7\x1e.\x18\x95@'
p1366
tp1367
Rp1368
sbasg63
g1
(g21
g3
Ntp1369
Rp1370
(dp1371
g25
g1350
sg34
I609230250
sg35
I-638024604
sg36
S'Var191'
p1372
sg38
g39
(g43
S'yD\x8e\xa2"\xed\x97\xc0'
p1373
tp1374
Rp1375
sg49
g39
(g43
S'}\xc3W\x94>,\x9e@'
p1376
tp1377
Rp1378
sbsg36
S'Add_31'
p1379
sg75
(lp1380
I0
aI0
asg77
g1
(g78
g3
Ntp1381
Rp1382
(dp1383
g82
F0.0003255208333330373
sg83
I0
sg84
g85
sg86
g87
(S'\x04c\x00\x005\x00\x00\x00\x04\x00\x00\x00\x00\x00\x00\x00\x00\xf0\xff\xff'
p1384
tp1385
Rp1386
sg91
F0.031249970197677612
sbsg92
g1
(g78
g3
Ntp1387
Rp1388
(dp1389
g82
F0.0003255208333143855
sg83
I0
sg84
g85
sg86
g87
(S'\x04c\x00\x005\x00\x00\x00\x04\x00\x00\x00\x00\x00\x00\x00\x00\x80\xff\xff'
p1390
tp1391
Rp1392
sg91
F0.0312497615814209
sbsg99
(lp1393
g1
(g8
g3
Ntp1394
Rp1395
(dp1396
g12
Nsg13
(lp1397
I0
aI0
asg15
Nsg16
(lp1398
I0
aI0
asg18
I00
sg19
(lp1399
g1
(g21
g3
Ntp1400
Rp1401
(dp1402
g25
g1
(g26
g3
Ntp1403
Rp1404
(dp1405
g30
I01
sg31
I32
sg32
I-21
sg33
I10
sbsg34
I655110300
sg35
I-536443752
sg36
S'Var174'
p1406
sg38
g39
(g43
S'[\x91P\x83T\xf9o\xc0'
p1407
tp1408
Rp1409
sg49
g39
(g43
S'S3 \xd3\x13\x86s@'
p1410
tp1411
Rp1412
sbag1
(g21
g3
Ntp1413
Rp1414
(dp1415
g25
g1404
sg34
I563350200
sg35
I-739605456
sg36
S'Var175'
p1416
sg38
g39
(g43
S'\xae\x9c\xd7\x99\xd3\nv\xc0'
p1417
tp1418
Rp1419
sg49
g39
(g43
S'\xd2[_\x03.\xcap@'
p1420
tp1421
Rp1422
sbasg63
g1
(g21
g3
Ntp1423
Rp1424
(dp1425
g25
g1404
sg34
I1218460500
sg35
I-1276049208
sg36
S'Var176'
p1426
sg38
g1355
sg49
g1358
sbsg36
S'Add_28'
p1427
sg75
(lp1428
I0
aI0
asg77
g1
(g78
g3
Ntp1429
Rp1430
(dp1431
g82
F1.865174681370263e-14
sg83
I0
sg84
g85
sg86
g87
(S'\x04c\x00\x005\x00\x00\x00\x15\x00\x00\x00\x00\x00\x00\x00\x00\x00\x00\xe0'
p1432
tp1433
Rp1434
sg91
F2.086162567138672e-07
sbsg92
g1
(g78
g3
Ntp1435
Rp1436
(dp1437
g82
I0
sg83
I0
sg84
g85
sg86
I0
sg91
I0
sbsg99
(lp1438
g1
(g8
g3
Ntp1439
Rp1440
(dp1441
g12
Nsg13
(lp1442
I3
aI0
asg15
Nsg16
(lp1443
I0
aI0
asg18
I00
sg19
(lp1444
g1
(g21
g3
Ntp1445
Rp1446
(dp1447
g25
g1
(g26
g3
Ntp1448
Rp1449
(dp1450
g30
I01
sg31
I32
sg32
I-21
sg33
I10
sbsg34
I84408480
sg35
I-123486480
sg36
S'Var169'
p1451
sg38
g39
(g43
S'\x84]\x00\x04\x00qM\xc0'
p1452
tp1453
Rp1454
sg49
g39
(g43
S'\xa2\xf8\t\x9b\xdf\x1fD@'
p1455
tp1456
Rp1457
sbag1
(g21
g3
Ntp1458
Rp1459
(dp1460
g25
g1449
sg34
I570701820
sg35
I-412957272
sg36
S'Var170'
p1461
sg38
g39
(g43
S'\xfayP\x82\x14\x9dh\xc0'
p1462
tp1463
Rp1464
sg49
g39
(g43
S'?\xf4\xbe\xdf\x17\x02q@'
p1465
tp1466
Rp1467
sbasg63
g1
(g21
g3
Ntp1468
Rp1469
(dp1470
g25
g1449
sg34
I655110300
sg35
I-536443752
sg36
S'Var171'
p1471
sg38
g1409
sg49
g1412
sbsg36
S'Add_27'
p1472
sg75
(lp1473
I0
aI0
asg77
g1
(g78
g3
Ntp1474
Rp1475
(dp1476
g82
F1.865174681370263e-14
sg83
I0
sg84
g85
sg86
g87
(S'\x04c\x00\x005\x00\x00\x00\x15\x00\x00\x00\x00\x00\x00\x00\x00\x00\x00\xe0'
p1477
tp1478
Rp1479
sg91
F2.086162567138672e-07
sbsg92
g1
(g78
g3
Ntp1480
Rp1481
(dp1482
g82
F1.865174681370263e-14
sg83
I0
sg84
g85
sg86
g87
(S'\x04c\x00\x005\x00\x00\x00\x15\x00\x00\x00\x00\x00\x00\x00\x00\x00\x00\xe0'
p1483
tp1484
Rp1485
sg91
F2.086162567138672e-07
sbsg99
(lp1486
g1
(g101
g3
Ntp1487
Rp1488
(dp1489
g92
g1
(g78
g3
Ntp1490
Rp1491
(dp1492
g82
F0.0
sg83
I0
sg84
g85
sg86
g87
(S'\x04\x00\x00\x005\x00\x00\x00'
p1493
tp1494
Rp1495
sg91
F0.0
sbsg12
I1
sg13
I0
sg15
Nsg77
g1
(g78
g3
Ntp1496
Rp1497
(dp1498
g82
I0
sg83
I0
sg84
g85
sg86
I0
sg91
I0
sbsg114
g115
sg116
I3
sg117
g1
(g118
g3
Ntp1499
Rp1500
(dp1501
g122
g39
(g43
S'\x0c=\x19m;\xcd\xcf?'
p1502
tp1503
Rp1504
sg25
g1
(g26
g3
Ntp1505
Rp1506
(dp1507
g30
I01
sg31
I16
sg32
I-17
sg33
I-2
sbsg129
I32565
sbsg130
S'u1[k]'
p1508
sg132
I0
sg133
g1
(g118
g3
Ntp1509
Rp1510
(dp1511
g122
g1504
sg25
g1
(g26
g3
Ntp1512
Rp1513
(dp1514
g30
I01
sg31
I16
sg32
I-17
sg33
I-2
sbsg129
I32565
sbsg63
g1
(g21
g3
Ntp1515
Rp1516
(dp1517
g25
g1
(g26
g3
Ntp1518
Rp1519
(dp1520
g30
I01
sg31
I32
sg32
I-24
sg33
I7
sbsg34
I675267840
sg35
I-987891840
sg36
S'Var161'
p1521
sg38
g1454
sg49
g1457
sbsg36
S'Mult_u1[k]'
p1522
sg31
I32
sg148
g1
(g21
g3
Ntp1523
Rp1524
(dp1525
g25
g1
(g26
g3
Ntp1526
Rp1527
(dp1528
g30
I01
sg31
I16
sg32
I-7
sg33
I8
sbsg34
I20736
sg35
I-30336
sg36
g1508
sg38
g39
(g43
S'\x00\x00\x00\x00\x00\xa0m\xc0'
p1529
tp1530
Rp1531
sg49
g39
(g43
S'\x00\x00\x00\x00\x00@d@'
p1532
tp1533
Rp1534
sbsg161
I0
sbag1
(g101
g3
Ntp1535
Rp1536
(dp1537
g92
g1
(g78
g3
Ntp1538
Rp1539
(dp1540
g82
F0.0
sg83
I0
sg84
g85
sg86
g87
(S'\x04\x00\x00\x005\x00\x00\x00'
p1541
tp1542
Rp1543
sg91
F0.0
sbsg12
I1
sg13
I0
sg15
Nsg77
g1
(g78
g3
Ntp1544
Rp1545
(dp1546
g82
I0
sg83
I0
sg84
g85
sg86
I0
sg91
I0
sbsg114
g115
sg116
I2
sg117
g1
(g118
g3
Ntp1547
Rp1548
(dp1549
g122
g39
(g43
S'\x02\xcb;\x11\xa0\x15\xc8?'
p1550
tp1551
Rp1552
sg25
g1
(g26
g3
Ntp1553
Rp1554
(dp1555
g30
I01
sg31
I16
sg32
I-17
sg33
I-2
sbsg129
I24663
sbsg130
S'x3[k]'
p1556
sg132
I0
sg133
g1
(g118
g3
Ntp1557
Rp1558
(dp1559
g122
g1552
sg25
g1
(g26
g3
Ntp1560
Rp1561
(dp1562
g30
I01
sg31
I16
sg32
I-17
sg33
I-2
sbsg129
I24663
sbsg63
g1
(g21
g3
Ntp1563
Rp1564
(dp1565
g25
g1
(g26
g3
Ntp1566
Rp1567
(dp1568
g30
I01
sg31
I32
sg32
I-21
sg33
I10
sbsg34
I570701820
sg35
I-412957272
sg36
S'Var160'
p1569
sg38
g1464
sg49
g1467
sbsg36
S'Mult_x3[k]'
p1570
sg31
I32
sg148
g1
(g21
g3
Ntp1571
Rp1572
(dp1573
g25
g1
(g26
g3
Ntp1574
Rp1575
(dp1576
g30
I01
sg31
I16
sg32
I-4
sg33
I11
sbsg34
I23140
sg35
I-16744
sg36
g1556
sg38
g39
(g43
S'\xe2\xbc\x94\x8b\xfcY\x90\xc0'
p1577
tp1578
Rp1579
sg49
g39
(g43
S'\xe6;^}\x18\x99\x96@'
p1580
tp1581
Rp1582
sbsg161
I0
sbasg210
g1488
sg211
(lp1583
I0
aI0
asbag1
(g101
g3
Ntp1584
Rp1585
(dp1586
g92
g1
(g78
g3
Ntp1587
Rp1588
(dp1589
g82
F0.0
sg83
I0
sg84
g85
sg86
g87
(S'\x04\x00\x00\x005\x00\x00\x00'
p1590
tp1591
Rp1592
sg91
F0.0
sbsg12
I1
sg13
I0
sg15
Nsg77
g1
(g78
g3
Ntp1593
Rp1594
(dp1595
g82
I0
sg83
I0
sg84
g85
sg86
I0
sg91
I0
sbsg114
g115
sg116
I0
sg117
g1
(g118
g3
Ntp1596
Rp1597
(dp1598
g122
g39
(g43
S' X\x86\xbf\x1b\xd2\xcb\xbf'
p1599
tp1600
Rp1601
sg25
g1
(g26
g3
Ntp1602
Rp1603
(dp1604
g30
I01
sg31
I16
sg32
I-17
sg33
I-2
sbsg129
I-28488
sbsg130
S't1[k+1]'
p1605
sg132
I0
sg133
g1
(g118
g3
Ntp1606
Rp1607
(dp1608
g122
g1601
sg25
g1
(g26
g3
Ntp1609
Rp1610
(dp1611
g30
I01
sg31
I16
sg32
I-17
sg33
I-2
sbsg129
I-28488
sbsg63
g1
(g21
g3
Ntp1612
Rp1613
(dp1614
g25
g1
(g26
g3
Ntp1615
Rp1616
(dp1617
g30
I01
sg31
I32
sg32
I-21
sg33
I10
sbsg34
I563350200
sg35
I-739605456
sg36
S'Var158'
p1618
sg38
g1419
sg49
g1422
sbsg36
S'Mult_t1[k+1]'
p1619
sg31
I32
sg148
g1
(g21
g3
Ntp1620
Rp1621
(dp1622
g25
g1
(g26
g3
Ntp1623
Rp1624
(dp1625
g30
I01
sg31
I16
sg32
I-4
sg33
I11
sbsg34
I25962
sg35
I-19775
sg36
g1605
sg38
g39
(g43
S'S\x17\xee\x7f\xdbO\x93\xc0'
p1626
tp1627
Rp1628
sg49
g39
(g43
S'\xf9$\x95\xaa\x7fZ\x99@'
p1629
tp1630
Rp1631
sbsg161
I0
sbasg210
g1488
sg211
(lp1632
I0
aI0
asbag1
(g101
g3
Ntp1633
Rp1634
(dp1635
g92
g1
(g78
g3
Ntp1636
Rp1637
(dp1638
g82
F0.0
sg83
I0
sg84
g85
sg86
g87
(S'\x04\x00\x00\x005\x00\x00\x00'
p1639
tp1640
Rp1641
sg91
F0.0
sbsg12
I1
sg13
I0
sg15
Nsg77
g1
(g78
g3
Ntp1642
Rp1643
(dp1644
g82
I0
sg83
I0
sg84
g85
sg86
I0
sg91
I0
sbsg114
g115
sg116
I1
sg117
g1
(g118
g3
Ntp1645
Rp1646
(dp1647
g122
g39
(g43
S'\x00\x00\x00\x00\x00\x00\xf0?'
p1648
tp1649
Rp1650
sg25
g1
(g26
g3
Ntp1651
Rp1652
(dp1653
g30
I01
sg31
I16
sg32
I-14
sg33
I1
sbsg129
I16384
sbsg130
S't4[k+1]'
p1654
sg132
I0
sg133
g1
(g118
g3
Ntp1655
Rp1656
(dp1657
g122
g1650
sg25
g1
(g26
g3
Ntp1658
Rp1659
(dp1660
g30
I01
sg31
I16
sg32
I-14
sg33
I1
sbsg129
I16384
sbsg63
g1
(g21
g3
Ntp1661
Rp1662
(dp1663
g25
g1
(g26
g3
Ntp1664
Rp1665
(dp1666
g30
I01
sg31
I32
sg32
I-18
sg33
I13
sbsg34
I353910784
sg35
I-241909760
sg36
S'Var159'
p1667
sg38
g1365
sg49
g1368
sbsg36
S'Mult_t4[k+1]'
p1668
sg31
I32
sg148
g1
(g21
g3
Ntp1669
Rp1670
(dp1671
g25
g1
(g26
g3
Ntp1672
Rp1673
(dp1674
g30
I01
sg31
I16
sg32
I-4
sg33
I11
sbsg34
I21601
sg35
I-14765
sg36
g1654
sg38
g39
(g43
S'D\x96\\W\x86\xd6\x8c\xc0'
p1675
tp1676
Rp1677
sg49
g39
(g43
S'\xb4\xdf\xb7\x1e.\x18\x95@'
p1678
tp1679
Rp1680
sbsg161
I0
sbasg210
g1488
sg211
(lp1681
I0
aI0
asbsg213
g1
(g21
g3
Ntp1682
Rp1683
(dp1684
g25
g1
(g26
g3
Ntp1685
Rp1686
(dp1687
g30
I01
sg31
I16
sg32
I-4
sg33
I11
sbsg34
I9296
sg35
I-9736
sg36
S'Var157'
p1688
sg38
g39
(g43
S'yD\x8e\xa2"\xed\x97\xc0'
p1689
tp1690
Rp1691
sg49
g39
(g43
S'}\xc3W\x94>,\x9e@'
p1692
tp1693
Rp1694
sbsg221
I16
sbag1
(g2
g3
Ntp1695
Rp1696
(dp1697
g7
g1
(g8
g3
Ntp1698
Rp1699
(dp1700
g12
Nsg13
(lp1701
I0
aI0
asg15
Nsg16
(lp1702
I0
aI0
asg18
I01
sg19
(lp1703
g1
(g21
g3
Ntp1704
Rp1705
(dp1706
g25
g1
(g26
g3
Ntp1707
Rp1708
(dp1709
g30
I01
sg31
I32
sg32
I-20
sg33
I11
sbsg34
I340616568
sg35
I-232818480
sg36
S'Var259'
p1710
sg38
g39
(g43
S'\xfa\xefT\xe5\x18\xe4\x8c\xc0'
p1711
tp1712
Rp1713
sg49
g39
(g43
S'\xfaI\xf6\x8e\xf3q\x94@'
p1714
tp1715
Rp1716
sbag1
(g21
g3
Ntp1717
Rp1718
(dp1719
g25
g1708
sg34
I438030864
sg35
I-333643800
sg36
S'Var260'
p1720
sg38
g39
(g43
S'\xd6u9N\x1c\xe3s\xc0'
p1721
tp1722
Rp1723
sg49
g39
(g43
S'[\x11\x14\x94\xd1\x1bz@'
p1724
tp1725
Rp1726
sbasg63
g1
(g21
g3
Ntp1727
Rp1728
(dp1729
g25
g1708
sg34
I778647432
sg35
I-566462280
sg36
S'Var261'
p1730
sg38
g39
(g43
S'r\xd58\x86\xd3j\x93\xc0'
p1731
tp1732
Rp1733
sg49
g39
(g43
S'QN\xfb\xf3\xe7\xf8\x9a@'
p1734
tp1735
Rp1736
sbsg36
S'Add_44'
p1737
sg75
(lp1738
I0
aI0
asg77
g1
(g78
g3
Ntp1739
Rp1740
(dp1741
g82
F0.0003255208333332593
sg83
I0
sg84
g85
sg86
g87
(S'\x04c\x00\x005\x00\x00\x00\x04\x00\x00\x00\x00\x00\x00\x00\x00\xf8\xff\xff'
p1742
tp1743
Rp1744
sg91
F0.031249985098838806
sbsg92
g1
(g78
g3
Ntp1745
Rp1746
(dp1747
g82
F0.0003255208332575421
sg83
I0
sg84
g85
sg86
g87
(S'\x04c\x00\x005\x00\x00\x00\x04\x00\x00\x00\x00\x00\x00\x00\x00\x00\xff\xff'
p1748
tp1749
Rp1750
sg91
F0.031249523162841797
sbsg99
(lp1751
g1
(g8
g3
Ntp1752
Rp1753
(dp1754
g12
Nsg13
(lp1755
I1
aI0
asg15
Nsg16
(lp1756
I0
aI0
asg18
I00
sg19
(lp1757
g1
(g21
g3
Ntp1758
Rp1759
(dp1760
g25
g1
(g26
g3
Ntp1761
Rp1762
(dp1763
g30
I01
sg31
I32
sg32
I-20
sg33
I11
sbsg34
I340616568
sg35
I-232818480
sg36
S'Var254'
p1764
sg38
g39
(g43
S'(\xd0^\xc02\xc1k\xc0'
p1765
tp1766
Rp1767
sg49
g39
(g43
S'\xda\xe8()RMt@'
p1768
tp1769
Rp1770
sbag1
(g21
g3
Ntp1771
Rp1772
(dp1773
g25
g1762
sg34
I0
sg35
I0
sg36
S'Var255'
p1774
sg38
g39
(g43
S'\xf0;=5\xcc\xf3\x85\xc0'
p1775
tp1776
Rp1777
sg49
g39
(g43
S'\x88\x1fX\t>\xbd\x8e@'
p1778
tp1779
Rp1780
sbasg63
g1
(g21
g3
Ntp1781
Rp1782
(dp1783
g25
g1762
sg34
I340616568
sg35
I-232818480
sg36
S'Var256'
p1784
sg38
g1713
sg49
g1716
sbsg36
S'Add_43'
p1785
sg75
(lp1786
I0
aI0
asg77
g1
(g78
g3
Ntp1787
Rp1788
(dp1789
g82
F7.571721027943568e-14
sg83
I0
sg84
g85
sg86
g87
(S'\x04c\x00\x005\x00\x00\x00\x14\x00\x00\x00\x00\x00\x00\x00\x00\x00\x00\xf8'
p1790
tp1791
Rp1792
sg91
F4.6193599700927734e-07
sbsg92
g1
(g78
g3
Ntp1793
Rp1794
(dp1795
g82
F5.684341886080802e-14
sg83
I0
sg84
g85
sg86
g87
(S'\x04c\x00\x005\x00\x00\x00\x14\x00\x00\x00\x00\x00\x00\x00\x00\x00\x00\x80'
p1796
tp1797
Rp1798
sg91
F2.384185791015625e-07
sbsg99
(lp1799
g1
(g8
g3
Ntp1800
Rp1801
(dp1802
g12
Nsg13
(lp1803
I4
aI0
asg15
Nsg16
(lp1804
I0
aI0
asg18
I00
sg19
(lp1805
g1
(g21
g3
Ntp1806
Rp1807
(dp1808
g25
g1
(g26
g3
Ntp1809
Rp1810
(dp1811
g30
I01
sg31
I32
sg32
I-21
sg33
I10
sbsg34
I34658880
sg35
I-23690880
sg36
S'Var219'
p1812
sg38
g39
(g43
S'hWK\x96\x07\x98&\xc0'
p1813
tp1814
Rp1815
sg49
g39
(g43
S'2{\xf9\x1a\xe9\x860@'
p1816
tp1817
Rp1818
sbag1
(g21
g3
Ntp1819
Rp1820
(dp1821
g25
g1810
sg34
I646574256
sg35
I-441946080
sg36
S'Var220'
p1822
sg38
g39
(g43
S'\xb1\x1a\xfaF\xb2Wj\xc0'
p1823
tp1824
Rp1825
sg49
g39
(g43
S"'Qy\x97\xe3Ds@"
p1826
tp1827
Rp1828
sbasg63
g1
(g21
g3
Ntp1829
Rp1830
(dp1831
g25
g1810
sg34
I681233136
sg35
I-465636960
sg36
S'Var221'
p1832
sg38
g1767
sg49
g1770
sbsg36
S'Add_36'
p1833
sg75
(lp1834
I0
aI0
asg77
g1
(g78
g3
Ntp1835
Rp1836
(dp1837
g82
F1.887379141862766e-14
sg83
I0
sg84
g85
sg86
g87
(S'\x04c\x00\x005\x00\x00\x00\x15\x00\x00\x00\x00\x00\x00\x00\x00\x00\x00\xf0'
p1838
tp1839
Rp1840
sg91
F2.2351741790771484e-07
sbsg92
g1
(g78
g3
Ntp1841
Rp1842
(dp1843
g82
F1.887379141862766e-14
sg83
I0
sg84
g85
sg86
g87
(S'\x04c\x00\x005\x00\x00\x00\x15\x00\x00\x00\x00\x00\x00\x00\x00\x00\x00\xf0'
p1844
tp1845
Rp1846
sg91
F2.2351741790771484e-07
sbsg99
(lp1847
g1
(g101
g3
Ntp1848
Rp1849
(dp1850
g92
g1
(g78
g3
Ntp1851
Rp1852
(dp1853
g82
F0.0
sg83
I0
sg84
g85
sg86
g87
(S'\x04\x00\x00\x005\x00\x00\x00'
p1854
tp1855
Rp1856
sg91
F0.0
sbsg12
I1
sg13
I0
sg15
Nsg77
g1
(g78
g3
Ntp1857
Rp1858
(dp1859
g82
I0
sg83
I0
sg84
g85
sg86
I0
sg91
I0
sbsg114
g115
sg116
I3
sg117
g1
(g118
g3
Ntp1860
Rp1861
(dp1862
g122
g39
(g43
S'\x00\xba+\xf5\x18\xda\xb1\xbf'
p1863
tp1864
Rp1865
sg25
g1
(g26
g3
Ntp1866
Rp1867
(dp1868
g30
I01
sg31
I16
sg32
I-18
sg33
I-3
sbsg129
I-18280
sbsg130
S'u1[k]'
p1869
sg132
I0
sg133
g1
(g118
g3
Ntp1870
Rp1871
(dp1872
g122
g1865
sg25
g1
(g26
g3
Ntp1873
Rp1874
(dp1875
g30
I01
sg31
I16
sg32
I-18
sg33
I-3
sbsg129
I-18280
sbsg63
g1
(g21
g3
Ntp1876
Rp1877
(dp1878
g25
g1
(g26
g3
Ntp1879
Rp1880
(dp1881
g30
I01
sg31
I32
sg32
I-25
sg33
I6
sbsg34
I554542080
sg35
I-379054080
sg36
S'Var216'
p1882
sg38
g1815
sg49
g1818
sbsg36
S'Mult_u1[k]'
p1883
sg31
I32
sg148
g1
(g21
g3
Ntp1884
Rp1885
(dp1886
g25
g1
(g26
g3
Ntp1887
Rp1888
(dp1889
g30
I01
sg31
I16
sg32
I-7
sg33
I8
sbsg34
I20736
sg35
I-30336
sg36
g1869
sg38
g39
(g43
S'\x00\x00\x00\x00\x00\xa0m\xc0'
p1890
tp1891
Rp1892
sg49
g39
(g43
S'\x00\x00\x00\x00\x00@d@'
p1893
tp1894
Rp1895
sbsg161
I0
sbag1
(g101
g3
Ntp1896
Rp1897
(dp1898
g92
g1
(g78
g3
Ntp1899
Rp1900
(dp1901
g82
F0.0
sg83
I0
sg84
g85
sg86
g87
(S'\x04\x00\x00\x005\x00\x00\x00'
p1902
tp1903
Rp1904
sg91
F0.0
sbsg12
I1
sg13
I0
sg15
Nsg77
g1
(g78
g3
Ntp1905
Rp1906
(dp1907
g82
I0
sg83
I0
sg84
g85
sg86
I0
sg91
I0
sbsg114
g115
sg116
I2
sg117
g1
(g118
g3
Ntp1908
Rp1909
(dp1910
g122
g39
(g43
S'\x12\xb1\x913\xf4\xd3\xc9?'
p1911
tp1912
Rp1913
sg25
g1
(g26
g3
Ntp1914
Rp1915
(dp1916
g30
I01
sg31
I16
sg32
I-17
sg33
I-2
sbsg129
I26448
sbsg130
S'x4[k]'
p1917
sg132
I0
sg133
g1
(g118
g3
Ntp1918
Rp1919
(dp1920
g122
g1913
sg25
g1
(g26
g3
Ntp1921
Rp1922
(dp1923
g30
I01
sg31
I16
sg32
I-17
sg33
I-2
sbsg129
I26448
sbsg63
g1
(g21
g3
Ntp1924
Rp1925
(dp1926
g25
g1
(g26
g3
Ntp1927
Rp1928
(dp1929
g30
I01
sg31
I32
sg32
I-21
sg33
I10
sbsg34
I646574256
sg35
I-441946080
sg36
S'Var215'
p1930
sg38
g1825
sg49
g1828
sbsg36
S'Mult_x4[k]'
p1931
sg31
I32
sg148
g1
(g21
g3
Ntp1932
Rp1933
(dp1934
g25
g1
(g26
g3
Ntp1935
Rp1936
(dp1937
g30
I01
sg31
I16
sg32
I-4
sg33
I11
sbsg34
I24447
sg35
I-16710
sg36
g1917
sg38
g39
(g43
S'\x98\xf0\x1e\xc4\x9cQ\x90\xc0'
p1938
tp1939
Rp1940
sg49
g39
(g43
S'vi\xe11\xb1\xdf\x97@'
p1941
tp1942
Rp1943
sbsg161
I0
sbasg210
g1849
sg211
(lp1944
I0
aI0
asbag1
(g101
g3
Ntp1945
Rp1946
(dp1947
g92
g1
(g78
g3
Ntp1948
Rp1949
(dp1950
g82
F0.0
sg83
I0
sg84
g85
sg86
g87
(S'\x04\x00\x00\x005\x00\x00\x00'
p1951
tp1952
Rp1953
sg91
F0.0
sbsg12
I1
sg13
I0
sg15
Nsg77
g1
(g78
g3
Ntp1954
Rp1955
(dp1956
g82
I0
sg83
I0
sg84
g85
sg86
I0
sg91
I0
sbsg114
g115
sg116
I1
sg117
g1
(g118
g3
Ntp1957
Rp1958
(dp1959
g122
g39
(g43
S'\x00\x00\x00\x00\x00\x00\xf0?'
p1960
tp1961
Rp1962
sg25
g1
(g26
g3
Ntp1963
Rp1964
(dp1965
g30
I01
sg31
I16
sg32
I-14
sg33
I1
sbsg129
I16384
sbsg130
S't5[k+1]'
p1966
sg132
I0
sg133
g1
(g118
g3
Ntp1967
Rp1968
(dp1969
g122
g1962
sg25
g1
(g26
g3
Ntp1970
Rp1971
(dp1972
g30
I01
sg31
I16
sg32
I-14
sg33
I1
sbsg129
I16384
sbsg63
g1
(g21
g3
Ntp1973
Rp1974
(dp1975
g25
g1
(g26
g3
Ntp1976
Rp1977
(dp1978
g30
I01
sg31
I32
sg32
I-19
sg33
I12
sbsg34
I515719168
sg35
I-368295936
sg36
S'Var214'
p1979
sg38
g1777
sg49
g1780
sbsg36
S'Mult_t5[k+1]'
p1980
sg31
I32
sg148
g1
(g21
g3
Ntp1981
Rp1982
(dp1983
g25
g1
(g26
g3
Ntp1984
Rp1985
(dp1986
g30
I01
sg31
I16
sg32
I-5
sg33
I10
sbsg34
I31477
sg35
I-22479
sg36
g1966
sg38
g39
(g43
S'\xf0;=5\xcc\xf3\x85\xc0'
p1987
tp1988
Rp1989
sg49
g39
(g43
S'\x88\x1fX\t>\xbd\x8e@'
p1990
tp1991
Rp1992
sbsg161
I0
sbasg210
g1849
sg211
(lp1993
I0
aI0
asbag1
(g101
g3
Ntp1994
Rp1995
(dp1996
g92
g1
(g78
g3
Ntp1997
Rp1998
(dp1999
g82
F0.0
sg83
I0
sg84
g85
sg86
g87
(S'\x04\x00\x00\x005\x00\x00\x00'
p2000
tp2001
Rp2002
sg91
F0.0
sbsg12
I1
sg13
I0
sg15
Nsg77
g1
(g78
g3
Ntp2003
Rp2004
(dp2005
g82
I0
sg83
I0
sg84
g85
sg86
I0
sg91
I0
sbsg114
g115
sg116
I0
sg117
g1
(g118
g3
Ntp2006
Rp2007
(dp2008
g122
g39
(g43
S'\x10uN\xe9\xffy\xd0?'
p2009
tp2010
Rp2011
sg25
g1
(g26
g3
Ntp2012
Rp2013
(dp2014
g30
I01
sg31
I16
sg32
I-16
sg33
I-1
sbsg129
I16872
sbsg130
S't1[k+1]'
p2015
sg132
I0
sg133
g1
(g118
g3
Ntp2016
Rp2017
(dp2018
g122
g2011
sg25
g1
(g26
g3
Ntp2019
Rp2020
(dp2021
g30
I01
sg31
I16
sg32
I-16
sg33
I-1
sbsg129
I16872
sbsg63
g1
(g21
g3
Ntp2022
Rp2023
(dp2024
g25
g1
(g26
g3
Ntp2025
Rp2026
(dp2027
g30
I01
sg31
I32
sg32
I-20
sg33
I11
sbsg34
I438030864
sg35
I-333643800
sg36
S'Var213'
p2028
sg38
g1723
sg49
g1726
sbsg36
S'Mult_t1[k+1]'
p2029
sg31
I32
sg148
g1
(g21
g3
Ntp2030
Rp2031
(dp2032
g25
g1
(g26
g3
Ntp2033
Rp2034
(dp2035
g30
I01
sg31
I16
sg32
I-4
sg33
I11
sbsg34
I25962
sg35
I-19775
sg36
g2015
sg38
g39
(g43
S'S\x17\xee\x7f\xdbO\x93\xc0'
p2036
tp2037
Rp2038
sg49
g39
(g43
S'\xf9$\x95\xaa\x7fZ\x99@'
p2039
tp2040
Rp2041
sbsg161
I0
sbasg210
g1849
sg211
(lp2042
I0
aI0
asbsg213
g1
(g21
g3
Ntp2043
Rp2044
(dp2045
g25
g1
(g26
g3
Ntp2046
Rp2047
(dp2048
g30
I01
sg31
I16
sg32
I-4
sg33
I11
sbsg34
I11881
sg35
I-8644
sg36
S'Var212'
p2049
sg38
g39
(g43
S'r\xd58\x86\xd3j\x93\xc0'
p2050
tp2051
Rp2052
sg49
g39
(g43
S'QN\xfb\xf3\xe7\xf8\x9a@'
p2053
tp2054
Rp2055
sbsg221
I16
sbag1
(g2
g3
Ntp2056
Rp2057
(dp2058
g7
g1
(g8
g3
Ntp2059
Rp2060
(dp2061
g12
Nsg13
(lp2062
I1
aI0
asg15
Nsg16
(lp2063
I0
aI0
asg18
I01
sg19
(lp2064
g1
(g21
g3
Ntp2065
Rp2066
(dp2067
g25
g1
(g26
g3
Ntp2068
Rp2069
(dp2070
g30
I01
sg31
I32
sg32
I-20
sg33
I11
sbsg34
I581049196
sg35
I-482293554
sg36
S'Var299'
p2071
sg38
g39
(g43
S'<\x89\xa4p\x19\xbf|\xc0'
p2072
tp2073
Rp2074
sg49
g39
(g43
S'V\xfd\x05\x8e\x00Q\x81@'
p2075
tp2076
Rp2077
sbag1
(g21
g3
Ntp2078
Rp2079
(dp2080
g25
g2069
sg34
I0
sg35
I0
sg36
S'Var300'
p2081
sg38
g39
(g43
S'\xf72\xe3\xbb8\x05\x84\xc0'
p2082
tp2083
Rp2084
sg49
g39
(g43
S'!\xae4h\x02J\x8d@'
p2085
tp2086
Rp2087
sbasg63
g1
(g21
g3
Ntp2088
Rp2089
(dp2090
g25
g2069
sg34
I581049196
sg35
I-482293554
sg36
S'Var301'
p2091
sg38
g39
(g43
S'\xca\xbb\x1a\xbab2\x91\xc0'
p2092
tp2093
Rp2094
sg49
g39
(g43
S'\xbcU\x1d{\x81M\x97@'
p2095
tp2096
Rp2097
sbsg36
S'Add_51'
p2098
sg75
(lp2099
I0
aI0
asg77
g1
(g78
g3
Ntp2100
Rp2101
(dp2102
g82
F0.0003255208333321491
sg83
I0
sg84
g85
sg86
g87
(S'\x04c\x00\x005\x00\x00\x00\x04\x00\x00\x00\x00\x00\x00\x00\x00\xe0\xff\xff'
p2103
tp2104
Rp2105
sg91
F0.031249940395355225
sbsg92
g1
(g78
g3
Ntp2106
Rp2107
(dp2108
g82
F0.0003255208333143855
sg83
I0
sg84
g85
sg86
g87
(S'\x04c\x00\x005\x00\x00\x00\x04\x00\x00\x00\x00\x00\x00\x00\x00\x80\xff\xff'
p2109
tp2110
Rp2111
sg91
F0.0312497615814209
sbsg99
(lp2112
g1
(g8
g3
Ntp2113
Rp2114
(dp2115
g12
Nsg13
(lp2116
I0
aI0
asg15
Nsg16
(lp2117
I0
aI0
asg18
I00
sg19
(lp2118
g1
(g21
g3
Ntp2119
Rp2120
(dp2121
g25
g1
(g26
g3
Ntp2122
Rp2123
(dp2124
g30
I01
sg31
I32
sg32
I-21
sg33
I10
sbsg34
I734582139
sg35
I-638952183
sg36
S'Var284'
p2125
sg38
g39
(g43
S'\xea\xa3c\xa1\xad\ns\xc0'
p2126
tp2127
Rp2128
sg49
g39
(g43
S'w\xf4\x83\xbbZ\xe4u@'
p2129
tp2130
Rp2131
sbag1
(g21
g3
Ntp2132
Rp2133
(dp2134
g25
g2123
sg34
I427516254
sg35
I-325634925
sg36
S'Var285'
p2135
sg38
g39
(g43
S'\xa3\xca\x81\x9e\xd7hc\xc0'
p2136
tp2137
Rp2138
sg49
g39
(g43
S'k\x0c\x10\xc1L{i@'
p2139
tp2140
Rp2141
sbasg63
g1
(g21
g3
Ntp2142
Rp2143
(dp2144
g25
g2123
sg34
I1162098393
sg35
I-964587108
sg36
S'Var286'
p2145
sg38
g2074
sg49
g2077
sbsg36
S'Add_48'
p2146
sg75
(lp2147
I0
aI0
asg77
g1
(g78
g3
Ntp2148
Rp2149
(dp2150
g82
F1.7763568394002505e-14
sg83
I0
sg84
g85
sg86
g87
(S'\x04c\x00\x005\x00\x00\x00\x15\x00\x00\x00\x00\x00\x00\x00\x00\x00\x00\xc0'
p2151
tp2152
Rp2153
sg91
F1.7881393432617188e-07
sbsg92
g1
(g78
g3
Ntp2154
Rp2155
(dp2156
g82
I0
sg83
I0
sg84
g85
sg86
I0
sg91
I0
sbsg99
(lp2157
g1
(g8
g3
Ntp2158
Rp2159
(dp2160
g12
Nsg13
(lp2161
I2
aI0
asg15
Nsg16
(lp2162
I0
aI0
asg18
I00
sg19
(lp2163
g1
(g21
g3
Ntp2164
Rp2165
(dp2166
g25
g1
(g26
g3
Ntp2167
Rp2168
(dp2169
g30
I01
sg31
I32
sg32
I-21
sg33
I10
sbsg34
I152694720
sg35
I-223386720
sg36
S'Var279'
p2170
sg38
g39
(g43
S'\xc0\x94\x89\xa63\xa1Z\xc0'
p2171
tp2172
Rp2173
sg49
g39
(g43
S'\x0b\x93\xa8\x03\xdc3R@'
p2174
tp2175
Rp2176
sbag1
(g21
g3
Ntp2177
Rp2178
(dp2179
g25
g2168
sg34
I581887419
sg35
I-415565463
sg36
S'Var280'
p2180
sg38
g39
(g43
S'u}\x82o\xc1\xc4h\xc0'
p2181
tp2182
Rp2183
sg49
g39
(g43
S'\xb4\xcf\x99\xbacWq@'
p2184
tp2185
Rp2186
sbasg63
g1
(g21
g3
Ntp2187
Rp2188
(dp2189
g25
g2168
sg34
I734582139
sg35
I-638952183
sg36
S'Var281'
p2190
sg38
g2128
sg49
g2131
sbsg36
S'Add_47'
p2191
sg75
(lp2192
I0
aI0
asg77
g1
(g78
g3
Ntp2193
Rp2194
(dp2195
g82
F1.7763568394002505e-14
sg83
I0
sg84
g85
sg86
g87
(S'\x04c\x00\x005\x00\x00\x00\x15\x00\x00\x00\x00\x00\x00\x00\x00\x00\x00\xc0'
p2196
tp2197
Rp2198
sg91
F1.7881393432617188e-07
sbsg92
g1
(g78
g3
Ntp2199
Rp2200
(dp2201
g82
F1.7763568394002505e-14
sg83
I0
sg84
g85
sg86
g87
(S'\x04c\x00\x005\x00\x00\x00\x15\x00\x00\x00\x00\x00\x00\x00\x00\x00\x00\xc0'
p2202
tp2203
Rp2204
sg91
F1.7881393432617188e-07
sbsg99
(lp2205
g1
(g101
g3
Ntp2206
Rp2207
(dp2208
g92
g1
(g78
g3
Ntp2209
Rp2210
(dp2211
g82
F0.0
sg83
I0
sg84
g85
sg86
g87
(S'\x04\x00\x00\x005\x00\x00\x00'
p2212
tp2213
Rp2214
sg91
F0.0
sbsg12
I1
sg13
I0
sg15
Nsg77
g1
(g78
g3
Ntp2215
Rp2216
(dp2217
g82
I0
sg83
I0
sg84
g85
sg86
I0
sg91
I0
sbsg114
g115
sg116
I3
sg117
g1
(g118
g3
Ntp2218
Rp2219
(dp2220
g122
g39
(g43
S'\x80M\xe1}\xba\xc3\xdc?'
p2221
tp2222
Rp2223
sg25
g1
(g26
g3
Ntp2224
Rp2225
(dp2226
g30
I01
sg31
I16
sg32
I-16
sg33
I-1
sbsg129
I29455
sbsg130
S'u1[k]'
p2227
sg132
I0
sg133
g1
(g118
g3
Ntp2228
Rp2229
(dp2230
g122
g2223
sg25
g1
(g26
g3
Ntp2231
Rp2232
(dp2233
g30
I01
sg31
I16
sg32
I-16
sg33
I-1
sbsg129
I29455
sbsg63
g1
(g21
g3
Ntp2234
Rp2235
(dp2236
g25
g1
(g26
g3
Ntp2237
Rp2238
(dp2239
g30
I01
sg31
I32
sg32
I-23
sg33
I8
sbsg34
I610778880
sg35
I-893546880
sg36
S'Var271'
p2240
sg38
g2173
sg49
g2176
sbsg36
S'Mult_u1[k]'
p2241
sg31
I32
sg148
g1
(g21
g3
Ntp2242
Rp2243
(dp2244
g25
g1
(g26
g3
Ntp2245
Rp2246
(dp2247
g30
I01
sg31
I16
sg32
I-7
sg33
I8
sbsg34
I20736
sg35
I-30336
sg36
g2227
sg38
g39
(g43
S'\x00\x00\x00\x00\x00\xa0m\xc0'
p2248
tp2249
Rp2250
sg49
g39
(g43
S'\x00\x00\x00\x00\x00@d@'
p2251
tp2252
Rp2253
sbsg161
I0
sbag1
(g101
g3
Ntp2254
Rp2255
(dp2256
g92
g1
(g78
g3
Ntp2257
Rp2258
(dp2259
g82
F0.0
sg83
I0
sg84
g85
sg86
g87
(S'\x04\x00\x00\x005\x00\x00\x00'
p2260
tp2261
Rp2262
sg91
F0.0
sbsg12
I1
sg13
I0
sg15
Nsg77
g1
(g78
g3
Ntp2263
Rp2264
(dp2265
g82
I0
sg83
I0
sg84
g85
sg86
I0
sg91
I0
sbsg114
g115
sg116
I2
sg117
g1
(g118
g3
Ntp2266
Rp2267
(dp2268
g122
g39
(g43
S'\xa2\x8f\xa3\x08\xa3\xfa\xc9?'
p2269
tp2270
Rp2271
sg25
g1
(g26
g3
Ntp2272
Rp2273
(dp2274
g30
I01
sg31
I16
sg32
I-17
sg33
I-2
sbsg129
I26603
sbsg130
S'x5[k]'
p2275
sg132
I0
sg133
g1
(g118
g3
Ntp2276
Rp2277
(dp2278
g122
g2271
sg25
g1
(g26
g3
Ntp2279
Rp2280
(dp2281
g30
I01
sg31
I16
sg32
I-17
sg33
I-2
sbsg129
I26603
sbsg63
g1
(g21
g3
Ntp2282
Rp2283
(dp2284
g25
g1
(g26
g3
Ntp2285
Rp2286
(dp2287
g30
I01
sg31
I32
sg32
I-21
sg33
I10
sbsg34
I581887419
sg35
I-415565463
sg36
S'Var270'
p2288
sg38
g2183
sg49
g2186
sbsg36
S'Mult_x5[k]'
p2289
sg31
I32
sg148
g1
(g21
g3
Ntp2290
Rp2291
(dp2292
g25
g1
(g26
g3
Ntp2293
Rp2294
(dp2295
g30
I01
sg31
I16
sg32
I-4
sg33
I11
sbsg34
I21873
sg35
I-15621
sg36
g2275
sg38
g39
(g43
S'Y\xfb\x1b\xd6L\x82\x8e\xc0'
p2296
tp2297
Rp2298
sg49
g39
(g43
S'\x9e\x97\x10,E\\\x95@'
p2299
tp2300
Rp2301
sbsg161
I0
sbasg210
g2207
sg211
(lp2302
I0
aI0
asbag1
(g101
g3
Ntp2303
Rp2304
(dp2305
g92
g1
(g78
g3
Ntp2306
Rp2307
(dp2308
g82
F0.0
sg83
I0
sg84
g85
sg86
g87
(S'\x04\x00\x00\x005\x00\x00\x00'
p2309
tp2310
Rp2311
sg91
F0.0
sbsg12
I1
sg13
I0
sg15
Nsg77
g1
(g78
g3
Ntp2312
Rp2313
(dp2314
g82
I0
sg83
I0
sg84
g85
sg86
I0
sg91
I0
sbsg114
g115
sg116
I0
sg117
g1
(g118
g3
Ntp2315
Rp2316
(dp2317
g122
g39
(g43
S'\xa0\x1f\x074\xb3\x14\xc0?'
p2318
tp2319
Rp2320
sg25
g1
(g26
g3
Ntp2321
Rp2322
(dp2323
g30
I01
sg31
I16
sg32
I-17
sg33
I-2
sbsg129
I16467
sbsg130
S't1[k+1]'
p2324
sg132
I0
sg133
g1
(g118
g3
Ntp2325
Rp2326
(dp2327
g122
g2320
sg25
g1
(g26
g3
Ntp2328
Rp2329
(dp2330
g30
I01
sg31
I16
sg32
I-17
sg33
I-2
sbsg129
I16467
sbsg63
g1
(g21
g3
Ntp2331
Rp2332
(dp2333
g25
g1
(g26
g3
Ntp2334
Rp2335
(dp2336
g30
I01
sg31
I32
sg32
I-21
sg33
I10
sbsg34
I427516254
sg35
I-325634925
sg36
S'Var268'
p2337
sg38
g2138
sg49
g2141
sbsg36
S'Mult_t1[k+1]'
p2338
sg31
I32
sg148
g1
(g21
g3
Ntp2339
Rp2340
(dp2341
g25
g1
(g26
g3
Ntp2342
Rp2343
(dp2344
g30
I01
sg31
I16
sg32
I-4
sg33
I11
sbsg34
I25962
sg35
I-19775
sg36
g2324
sg38
g39
(g43
S'S\x17\xee\x7f\xdbO\x93\xc0'
p2345
tp2346
Rp2347
sg49
g39
(g43
S'\xf9$\x95\xaa\x7fZ\x99@'
p2348
tp2349
Rp2350
sbsg161
I0
sbasg210
g2207
sg211
(lp2351
I0
aI0
asbag1
(g101
g3
Ntp2352
Rp2353
(dp2354
g92
g1
(g78
g3
Ntp2355
Rp2356
(dp2357
g82
F0.0
sg83
I0
sg84
g85
sg86
g87
(S'\x04\x00\x00\x005\x00\x00\x00'
p2358
tp2359
Rp2360
sg91
F0.0
sbsg12
I1
sg13
I0
sg15
Nsg77
g1
(g78
g3
Ntp2361
Rp2362
(dp2363
g82
I0
sg83
I0
sg84
g85
sg86
I0
sg91
I0
sbsg114
g115
sg116
I1
sg117
g1
(g118
g3
Ntp2364
Rp2365
(dp2366
g122
g39
(g43
S'\x00\x00\x00\x00\x00\x00\xf0?'
p2367
tp2368
Rp2369
sg25
g1
(g26
g3
Ntp2370
Rp2371
(dp2372
g30
I01
sg31
I16
sg32
I-14
sg33
I1
sbsg129
I16384
sbsg130
S't6[k+1]'
p2373
sg132
I0
sg133
g1
(g118
g3
Ntp2374
Rp2375
(dp2376
g122
g2369
sg25
g1
(g26
g3
Ntp2377
Rp2378
(dp2379
g30
I01
sg31
I16
sg32
I-14
sg33
I1
sbsg129
I16384
sbsg63
g1
(g21
g3
Ntp2380
Rp2381
(dp2382
g25
g1
(g26
g3
Ntp2383
Rp2384
(dp2385
g30
I01
sg31
I32
sg32
I-19
sg33
I12
sbsg34
I491388928
sg35
I-335888384
sg36
S'Var269'
p2386
sg38
g2084
sg49
g2087
sbsg36
S'Mult_t6[k+1]'
p2387
sg31
I32
sg148
g1
(g21
g3
Ntp2388
Rp2389
(dp2390
g25
g1
(g26
g3
Ntp2391
Rp2392
(dp2393
g30
I01
sg31
I16
sg32
I-5
sg33
I10
sbsg34
I29992
sg35
I-20501
sg36
g2373
sg38
g39
(g43
S'\xf72\xe3\xbb8\x05\x84\xc0'
p2394
tp2395
Rp2396
sg49
g39
(g43
S'!\xae4h\x02J\x8d@'
p2397
tp2398
Rp2399
sbsg161
I0
sbasg210
g2207
sg211
(lp2400
I0
aI0
asbsg213
g1
(g21
g3
Ntp2401
Rp2402
(dp2403
g25
g1
(g26
g3
Ntp2404
Rp2405
(dp2406
g30
I01
sg31
I16
sg32
I-4
sg33
I11
sbsg34
I8866
sg35
I-7360
sg36
S'Var267'
p2407
sg38
g39
(g43
S'\xca\xbb\x1a\xbab2\x91\xc0'
p2408
tp2409
Rp2410
sg49
g39
(g43
S'\xbcU\x1d{\x81M\x97@'
p2411
tp2412
Rp2413
sbsg221
I16
sbag1
(g2
g3
Ntp2414
Rp2415
(dp2416
g7
g1
(g8
g3
Ntp2417
Rp2418
(dp2419
g12
Nsg13
(lp2420
I1
aI0
asg15
Nsg16
(lp2421
I0
aI0
asg18
I01
sg19
(lp2422
g1
(g21
g3
Ntp2423
Rp2424
(dp2425
g25
g1
(g26
g3
Ntp2426
Rp2427
(dp2428
g30
I01
sg31
I32
sg32
I-20
sg33
I11
sbsg34
I433127181
sg35
I-307511609
sg36
S'Var374'
p2429
sg38
g39
(g43
S'\xfc\x0e\xb9c,Tr\xc0'
p2430
tp2431
Rp2432
sg49
g39
(g43
S'\xd4\x9f\xcb\xa9\xd2\xd0y@'
p2433
tp2434
Rp2435
sbag1
(g21
g3
Ntp2436
Rp2437
(dp2438
g25
g2427
sg34
I0
sg35
I0
sg36
S'Var375'
p2439
sg38
g39
(g43
S'\xf6\x9d\x11r[&\x82\xc0'
p2440
tp2441
Rp2442
sg49
g39
(g43
S'\x04\x8d\x8b\xd1r\x8d\x8a@'
p2443
tp2444
Rp2445
sbasg63
g1
(g21
g3
Ntp2446
Rp2447
(dp2448
g25
g2427
sg34
I433127181
sg35
I-307511609
sg36
S'Var376'
p2449
sg38
g39
(g43
S't%\xee\xa3qP\x8b\xc0'
p2450
tp2451
Rp2452
sg49
g39
(g43
S'w\xae8\x13\xee\xba\x93@'
p2453
tp2454
Rp2455
sbsg36
S'Add_65'
p2456
sg75
(lp2457
I0
aI0
asg77
g1
(g78
g3
Ntp2458
Rp2459
(dp2460
g82
F0.00032552083333331483
sg83
I0
sg84
g85
sg86
g87
(S'\x04c\x00\x005\x00\x00\x00\x04\x00\x00\x00\x00\x00\x00\x00\x00\xfc\xff\xff'
p2461
tp2462
Rp2463
sg91
F0.031249992549419403
sbsg92
g1
(g78
g3
Ntp2464
Rp2465
(dp2466
g82
F0.0003255208333143855
sg83
I0
sg84
g85
sg86
g87
(S'\x04c\x00\x005\x00\x00\x00\x04\x00\x00\x00\x00\x00\x00\x00\x00\x80\xff\xff'
p2467
tp2468
Rp2469
sg91
F0.0312497615814209
sbsg99
(lp2470
g1
(g8
g3
Ntp2471
Rp2472
(dp2473
g12
Nsg13
(lp2474
I1
aI0
asg15
Nsg16
(lp2475
I0
aI0
asg18
I00
sg19
(lp2476
g1
(g21
g3
Ntp2477
Rp2478
(dp2479
g25
g1
(g26
g3
Ntp2480
Rp2481
(dp2482
g30
I01
sg31
I32
sg32
I-21
sg33
I10
sbsg34
I313325691
sg35
I-237072329
sg36
S'Var359'
p2483
sg38
g39
(g43
S't\xed\xa0\xf8\xe8B\\\xc0'
p2484
tp2485
Rp2486
sg49
g39
(g43
S'\xfe\xcaW\x90\xe5\xacb@'
p2487
tp2488
Rp2489
sbag1
(g21
g3
Ntp2490
Rp2491
(dp2492
g25
g2481
sg34
I552928672
sg35
I-377950888
sg36
S'Var360'
p2493
sg38
g39
(g43
S'=\xa7!K\xe4\x86f\xc0'
p2494
tp2495
Rp2496
sg49
g39
(g43
S'U\xba\x9f\xe1_zp@'
p2497
tp2498
Rp2499
sbasg63
g1
(g21
g3
Ntp2500
Rp2501
(dp2502
g25
g2481
sg34
I866254363
sg35
I-615023217
sg36
S'Var361'
p2503
sg38
g2432
sg49
g2435
sbsg36
S'Add_62'
p2504
sg75
(lp2505
I0
aI0
asg77
g1
(g78
g3
Ntp2506
Rp2507
(dp2508
g82
F1.892930256985892e-14
sg83
I0
sg84
g85
sg86
g87
(S'\x04c\x00\x005\x00\x00\x00\x15\x00\x00\x00\x00\x00\x00\x00\x00\x00\x00\xf8'
p2509
tp2510
Rp2511
sg91
F2.3096799850463867e-07
sbsg92
g1
(g78
g3
Ntp2512
Rp2513
(dp2514
g82
F1.4210854715202004e-14
sg83
I0
sg84
g85
sg86
g87
(S'\x04c\x00\x005\x00\x00\x00\x15\x00\x00\x00\x00\x00\x00\x00\x00\x00\x00\x80'
p2515
tp2516
Rp2517
sg91
F1.1920928955078125e-07
sbsg99
(lp2518
g1
(g8
g3
Ntp2519
Rp2520
(dp2521
g12
Nsg13
(lp2522
I4
aI0
asg15
Nsg16
(lp2523
I0
aI0
asg18
I00
sg19
(lp2524
g1
(g21
g3
Ntp2525
Rp2526
(dp2527
g25
g1
(g26
g3
Ntp2528
Rp2529
(dp2530
g30
I01
sg31
I32
sg32
I-22
sg33
I9
sbsg34
I40559232
sg35
I-27724032
sg36
S'Var329'
p2531
sg38
g39
(g43
S'PIf\x98\x92p\x1a\xc0'
p2532
tp2533
Rp2534
sg49
g39
(g43
S'\x00\xf8\xfe\xe5\x15W#@'
p2535
tp2536
Rp2537
sbag1
(g21
g3
Ntp2538
Rp2539
(dp2540
g25
g2529
sg34
I586092150
sg35
I-446420625
sg36
S'Var330'
p2541
sg38
g39
(g43
S'\xdf\x88\x1a\xcf\xdf\x9bZ\xc0'
p2542
tp2543
Rp2544
sg49
g39
(g43
S'~\xdb\xf71twa@'
p2545
tp2546
Rp2547
sbasg63
g1
(g21
g3
Ntp2548
Rp2549
(dp2550
g25
g2529
sg34
I626651382
sg35
I-474144657
sg36
S'Var331'
p2551
sg38
g2486
sg49
g2489
sbsg36
S'Add_56'
p2552
sg75
(lp2553
I0
aI0
asg77
g1
(g78
g3
Ntp2554
Rp2555
(dp2556
g82
F4.718447854656915e-15
sg83
I0
sg84
g85
sg86
g87
(S'\x04c\x00\x005\x00\x00\x00\x16\x00\x00\x00\x00\x00\x00\x00\x00\x00\x00\xf0'
p2557
tp2558
Rp2559
sg91
F1.1175870895385742e-07
sbsg92
g1
(g78
g3
Ntp2560
Rp2561
(dp2562
g82
F4.718447854656915e-15
sg83
I0
sg84
g85
sg86
g87
(S'\x04c\x00\x005\x00\x00\x00\x16\x00\x00\x00\x00\x00\x00\x00\x00\x00\x00\xf0'
p2563
tp2564
Rp2565
sg91
F1.1175870895385742e-07
sbsg99
(lp2566
g1
(g101
g3
Ntp2567
Rp2568
(dp2569
g92
g1
(g78
g3
Ntp2570
Rp2571
(dp2572
g82
F0.0
sg83
I0
sg84
g85
sg86
g87
(S'\x04\x00\x00\x005\x00\x00\x00'
p2573
tp2574
Rp2575
sg91
F0.0
sbsg12
I1
sg13
I0
sg15
Nsg77
g1
(g78
g3
Ntp2576
Rp2577
(dp2578
g82
I0
sg83
I0
sg84
g85
sg86
I0
sg91
I0
sbsg114
g115
sg116
I3
sg117
g1
(g118
g3
Ntp2579
Rp2580
(dp2581
g122
g39
(g43
S' *\xf5\x0c\x02\xe4\xa4\xbf'
p2582
tp2583
Rp2584
sg25
g1
(g26
g3
Ntp2585
Rp2586
(dp2587
g30
I01
sg31
I16
sg32
I-19
sg33
I-4
sbsg129
I-21392
sbsg130
S'u1[k]'
p2588
sg132
I0
sg133
g1
(g118
g3
Ntp2589
Rp2590
(dp2591
g122
g2584
sg25
g1
(g26
g3
Ntp2592
Rp2593
(dp2594
g30
I01
sg31
I16
sg32
I-19
sg33
I-4
sbsg129
I-21392
sbsg63
g1
(g21
g3
Ntp2595
Rp2596
(dp2597
g25
g1
(g26
g3
Ntp2598
Rp2599
(dp2600
g30
I01
sg31
I32
sg32
I-26
sg33
I5
sbsg34
I648947712
sg35
I-443584512
sg36
S'Var326'
p2601
sg38
g2534
sg49
g2537
sbsg36
S'Mult_u1[k]'
p2602
sg31
I32
sg148
g1
(g21
g3
Ntp2603
Rp2604
(dp2605
g25
g1
(g26
g3
Ntp2606
Rp2607
(dp2608
g30
I01
sg31
I16
sg32
I-7
sg33
I8
sbsg34
I20736
sg35
I-30336
sg36
g2588
sg38
g39
(g43
S'\x00\x00\x00\x00\x00\xa0m\xc0'
p2609
tp2610
Rp2611
sg49
g39
(g43
S'\x00\x00\x00\x00\x00@d@'
p2612
tp2613
Rp2614
sbsg161
I0
sbag1
(g101
g3
Ntp2615
Rp2616
(dp2617
g92
g1
(g78
g3
Ntp2618
Rp2619
(dp2620
g82
F0.0
sg83
I0
sg84
g85
sg86
g87
(S'\x04\x00\x00\x005\x00\x00\x00'
p2621
tp2622
Rp2623
sg91
F0.0
sbsg12
I1
sg13
I0
sg15
Nsg77
g1
(g78
g3
Ntp2624
Rp2625
(dp2626
g82
I0
sg83
I0
sg84
g85
sg86
I0
sg91
I0
sbsg114
g115
sg116
I0
sg117
g1
(g118
g3
Ntp2627
Rp2628
(dp2629
g122
g39
(g43
S'\x00\x93\xc3C\xa8\x0b\xb6?'
p2630
tp2631
Rp2632
sg25
g1
(g26
g3
Ntp2633
Rp2634
(dp2635
g30
I01
sg31
I16
sg32
I-18
sg33
I-3
sbsg129
I22575
sbsg130
S't1[k+1]'
p2636
sg132
I0
sg133
g1
(g118
g3
Ntp2637
Rp2638
(dp2639
g122
g2632
sg25
g1
(g26
g3
Ntp2640
Rp2641
(dp2642
g30
I01
sg31
I16
sg32
I-18
sg33
I-3
sbsg129
I22575
sbsg63
g1
(g21
g3
Ntp2643
Rp2644
(dp2645
g25
g1
(g26
g3
Ntp2646
Rp2647
(dp2648
g30
I01
sg31
I32
sg32
I-22
sg33
I9
sbsg34
I586092150
sg35
I-446420625
sg36
S'Var323'
p2649
sg38
g2544
sg49
g2547
sbsg36
S'Mult_t1[k+1]'
p2650
sg31
I32
sg148
g1
(g21
g3
Ntp2651
Rp2652
(dp2653
g25
g1
(g26
g3
Ntp2654
Rp2655
(dp2656
g30
I01
sg31
I16
sg32
I-4
sg33
I11
sbsg34
I25962
sg35
I-19775
sg36
g2636
sg38
g39
(g43
S'S\x17\xee\x7f\xdbO\x93\xc0'
p2657
tp2658
Rp2659
sg49
g39
(g43
S'\xf9$\x95\xaa\x7fZ\x99@'
p2660
tp2661
Rp2662
sbsg161
I0
sbasg210
g2568
sg211
(lp2663
I0
aI0
asbag1
(g101
g3
Ntp2664
Rp2665
(dp2666
g92
g1
(g78
g3
Ntp2667
Rp2668
(dp2669
g82
F0.0
sg83
I0
sg84
g85
sg86
g87
(S'\x04\x00\x00\x005\x00\x00\x00'
p2670
tp2671
Rp2672
sg91
F0.0
sbsg12
I1
sg13
I0
sg15
Nsg77
g1
(g78
g3
Ntp2673
Rp2674
(dp2675
g82
I0
sg83
I0
sg84
g85
sg86
I0
sg91
I0
sbsg114
g115
sg116
I2
sg117
g1
(g118
g3
Ntp2676
Rp2677
(dp2678
g122
g39
(g43
S'\xcc?\xef\xb3\xf2y\xcb?'
p2679
tp2680
Rp2681
sg25
g1
(g26
g3
Ntp2682
Rp2683
(dp2684
g30
I01
sg31
I16
sg32
I-17
sg33
I-2
sbsg129
I28136
sbsg130
S'x6[k]'
p2685
sg132
I0
sg133
g1
(g118
g3
Ntp2686
Rp2687
(dp2688
g122
g2681
sg25
g1
(g26
g3
Ntp2689
Rp2690
(dp2691
g30
I01
sg31
I16
sg32
I-17
sg33
I-2
sbsg129
I28136
sbsg63
g1
(g21
g3
Ntp2692
Rp2693
(dp2694
g25
g1
(g26
g3
Ntp2695
Rp2696
(dp2697
g30
I01
sg31
I32
sg32
I-21
sg33
I10
sbsg34
I552928672
sg35
I-377950888
sg36
S'Var325'
p2698
sg38
g2496
sg49
g2499
sbsg36
S'Mult_x6[k]'
p2699
sg31
I32
sg148
g1
(g21
g3
Ntp2700
Rp2701
(dp2702
g25
g1
(g26
g3
Ntp2703
Rp2704
(dp2705
g30
I01
sg31
I16
sg32
I-4
sg33
I11
sbsg34
I19652
sg35
I-13433
sg36
g2685
sg38
g39
(g43
S'\xfb\xd3\x81\xb3V<\x8a\xc0'
p2706
tp2707
Rp2708
sg49
g39
(g43
S'\xba\x85\x02\x9b\xe00\x93@'
p2709
tp2710
Rp2711
sbsg161
I0
sbasg210
g2568
sg211
(lp2712
I0
aI0
asbag1
(g101
g3
Ntp2713
Rp2714
(dp2715
g92
g1
(g78
g3
Ntp2716
Rp2717
(dp2718
g82
F0.0
sg83
I0
sg84
g85
sg86
g87
(S'\x04\x00\x00\x005\x00\x00\x00'
p2719
tp2720
Rp2721
sg91
F0.0
sbsg12
I1
sg13
I0
sg15
Nsg77
g1
(g78
g3
Ntp2722
Rp2723
(dp2724
g82
I0
sg83
I0
sg84
g85
sg86
I0
sg91
I0
sbsg114
g115
sg116
I1
sg117
g1
(g118
g3
Ntp2725
Rp2726
(dp2727
g122
g39
(g43
S'\x00\x00\x00\x00\x00\x00\xf0?'
p2728
tp2729
Rp2730
sg25
g1
(g26
g3
Ntp2731
Rp2732
(dp2733
g30
I01
sg31
I16
sg32
I-14
sg33
I1
sbsg129
I16384
sbsg130
S't7[k+1]'
p2734
sg132
I0
sg133
g1
(g118
g3
Ntp2735
Rp2736
(dp2737
g122
g2730
sg25
g1
(g26
g3
Ntp2738
Rp2739
(dp2740
g30
I01
sg31
I16
sg32
I-14
sg33
I1
sbsg129
I16384
sbsg63
g1
(g21
g3
Ntp2741
Rp2742
(dp2743
g25
g1
(g26
g3
Ntp2744
Rp2745
(dp2746
g30
I01
sg31
I32
sg32
I-19
sg33
I12
sbsg34
I445480960
sg35
I-304496640
sg36
S'Var324'
p2747
sg38
g2442
sg49
g2445
sbsg36
S'Mult_t7[k+1]'
p2748
sg31
I32
sg148
g1
(g21
g3
Ntp2749
Rp2750
(dp2751
g25
g1
(g26
g3
Ntp2752
Rp2753
(dp2754
g30
I01
sg31
I16
sg32
I-5
sg33
I10
sbsg34
I27190
sg35
I-18585
sg36
g2734
sg38
g39
(g43
S'\xf6\x9d\x11r[&\x82\xc0'
p2755
tp2756
Rp2757
sg49
g39
(g43
S'\x04\x8d\x8b\xd1r\x8d\x8a@'
p2758
tp2759
Rp2760
sbsg161
I0
sbasg210
g2568
sg211
(lp2761
I0
aI0
asbsg213
g1
(g21
g3
Ntp2762
Rp2763
(dp2764
g25
g1
(g26
g3
Ntp2765
Rp2766
(dp2767
g30
I01
sg31
I16
sg32
I-4
sg33
I11
sbsg34
I6608
sg35
I-4693
sg36
S'Var322'
p2768
sg38
g2452
sg49
g2455
sbsg221
I16
sbag1
(g2
g3
Ntp2769
Rp2770
(dp2771
g7
g1
(g8
g3
Ntp2772
Rp2773
(dp2774
g12
Nsg13
(lp2775
I1
aI0
asg15
Nsg16
(lp2776
I0
aI0
asg18
I01
sg19
(lp2777
g1
(g21
g3
Ntp2778
Rp2779
(dp2780
g25
g1
(g26
g3
Ntp2781
Rp2782
(dp2783
g30
I01
sg31
I32
sg32
I-20
sg33
I11
sbsg34
I573809009
sg35
I-410065666
sg36
S'Var409'
p2784
sg38
g39
(g43
S'0\x1bt\xb1\x12qx\xc0'
p2785
tp2786
Rp2787
sg49
g39
(g43
S'cJ\xb5\x94\xca\x19\x81@'
p2788
tp2789
Rp2790
sbag1
(g21
g3
Ntp2791
Rp2792
(dp2793
g25
g2782
sg34
I0
sg35
I0
sg36
S'Var410'
p2794
sg38
g39
(g43
S'\x80\x95\xd9\x8d\x00\x9az\xc0'
p2795
tp2796
Rp2797
sg49
g39
(g43
S'f\x9a\xfb\xf5cu\x83@'
p2798
tp2799
Rp2800
sbasg63
g1
(g21
g3
Ntp2801
Rp2802
(dp2803
g25
g2782
sg34
I573809009
sg35
I-410065666
sg36
S'Var411'
p2804
sg38
g39
(g43
S'X\xd8\xa6\x9f\x89\x85\x89\xc0'
p2805
tp2806
Rp2807
sg49
g39
(g43
S'drXE\x97G\x92@'
p2808
tp2809
Rp2810
sbsg36
S'Add_71'
p2811
sg75
(lp2812
I0
aI0
asg77
g1
(g78
g3
Ntp2813
Rp2814
(dp2815
g82
F0.0003255208333321491
sg83
I0
sg84
g85
sg86
g87
(S'\x04c\x00\x005\x00\x00\x00\x04\x00\x00\x00\x00\x00\x00\x00\x00\xe0\xff\xff'
p2816
tp2817
Rp2818
sg91
F0.031249940395355225
sbsg92
g1
(g78
g3
Ntp2819
Rp2820
(dp2821
g82
F0.0003255208333143855
sg83
I0
sg84
g85
sg86
g87
(S'\x04c\x00\x005\x00\x00\x00\x04\x00\x00\x00\x00\x00\x00\x00\x00\x80\xff\xff'
p2822
tp2823
Rp2824
sg91
F0.0312497615814209
sbsg99
(lp2825
g1
(g8
g3
Ntp2826
Rp2827
(dp2828
g12
Nsg13
(lp2829
I0
aI0
asg15
Nsg16
(lp2830
I0
aI0
asg18
I00
sg19
(lp2831
g1
(g21
g3
Ntp2832
Rp2833
(dp2834
g25
g1
(g26
g3
Ntp2835
Rp2836
(dp2837
g30
I01
sg31
I32
sg32
I-21
sg33
I10
sbsg34
I691076248
sg35
I-472387956
sg36
S'Var394'
p2838
sg38
g39
(g43
S'z67\xd2\x03(l\xc0'
p2839
tp2840
Rp2841
sg49
g39
(g43
S'\xbc -\x89\x87\x98t@'
p2842
tp2843
Rp2844
sbag1
(g21
g3
Ntp2845
Rp2846
(dp2847
g25
g2836
sg34
I456541770
sg35
I-347743375
sg36
S'Var395'
p2848
sg38
g39
(g43
S'\xe7\xff\xb0\x90!\xbad\xc0'
p2849
tp2850
Rp2851
sg49
g39
(g43
S'\x15\xe8z@\x1b6k@'
p2852
tp2853
Rp2854
sbasg63
g1
(g21
g3
Ntp2855
Rp2856
(dp2857
g25
g2836
sg34
I1147618018
sg35
I-820131331
sg36
S'Var396'
p2858
sg38
g2787
sg49
g2790
sbsg36
S'Add_68'
p2859
sg75
(lp2860
I0
aI0
asg77
g1
(g78
g3
Ntp2861
Rp2862
(dp2863
g82
F1.7763568394002505e-14
sg83
I0
sg84
g85
sg86
g87
(S'\x04c\x00\x005\x00\x00\x00\x15\x00\x00\x00\x00\x00\x00\x00\x00\x00\x00\xc0'
p2864
tp2865
Rp2866
sg91
F1.7881393432617188e-07
sbsg92
g1
(g78
g3
Ntp2867
Rp2868
(dp2869
g82
I0
sg83
I0
sg84
g85
sg86
I0
sg91
I0
sbsg99
(lp2870
g1
(g8
g3
Ntp2871
Rp2872
(dp2873
g12
Nsg13
(lp2874
I2
aI0
asg15
Nsg16
(lp2875
I0
aI0
asg18
I00
sg19
(lp2876
g1
(g21
g3
Ntp2877
Rp2878
(dp2879
g25
g1
(g26
g3
Ntp2880
Rp2881
(dp2882
g30
I01
sg31
I32
sg32
I-21
sg33
I10
sbsg34
I239411712
sg35
I-163648512
sg36
S'Var389'
p2883
sg38
g39
(g43
S'\x1fVe\xc6\x17\x82S\xc0'
p2884
tp2885
Rp2886
sg49
g39
(g43
S'TSnC,\x8a\\@'
p2887
tp2888
Rp2889
sbag1
(g21
g3
Ntp2890
Rp2891
(dp2892
g25
g2881
sg34
I451664536
sg35
I-308739444
sg36
S'Var390'
p2893
sg38
g39
(g43
S'j\x8b\x04\xef\xf7fb\xc0'
p2894
tp2895
Rp2896
sg49
g39
(g43
S'\xcf\x17\xa3\xf0\xf8\xebj@'
p2897
tp2898
Rp2899
sbasg63
g1
(g21
g3
Ntp2900
Rp2901
(dp2902
g25
g2881
sg34
I691076248
sg35
I-472387956
sg36
S'Var391'
p2903
sg38
g2841
sg49
g2844
sbsg36
S'Add_67'
p2904
sg75
(lp2905
I0
aI0
asg77
g1
(g78
g3
Ntp2906
Rp2907
(dp2908
g82
F1.7763568394002505e-14
sg83
I0
sg84
g85
sg86
g87
(S'\x04c\x00\x005\x00\x00\x00\x15\x00\x00\x00\x00\x00\x00\x00\x00\x00\x00\xc0'
p2909
tp2910
Rp2911
sg91
F1.7881393432617188e-07
sbsg92
g1
(g78
g3
Ntp2912
Rp2913
(dp2914
g82
F1.7763568394002505e-14
sg83
I0
sg84
g85
sg86
g87
(S'\x04c\x00\x005\x00\x00\x00\x15\x00\x00\x00\x00\x00\x00\x00\x00\x00\x00\xc0'
p2915
tp2916
Rp2917
sg91
F1.7881393432617188e-07
sbsg99
(lp2918
g1
(g101
g3
Ntp2919
Rp2920
(dp2921
g92
g1
(g78
g3
Ntp2922
Rp2923
(dp2924
g82
F0.0
sg83
I0
sg84
g85
sg86
g87
(S'\x04\x00\x00\x005\x00\x00\x00'
p2925
tp2926
Rp2927
sg91
F0.0
sbsg12
I1
sg13
I0
sg15
Nsg77
g1
(g78
g3
Ntp2928
Rp2929
(dp2930
g82
I0
sg83
I0
sg84
g85
sg86
I0
sg91
I0
sbsg114
g115
sg116
I3
sg117
g1
(g118
g3
Ntp2931
Rp2932
(dp2933
g122
g39
(g43
S'\x8a\xa4G\\\xe6\xd3\xde\xbf'
p2934
tp2935
Rp2936
sg25
g1
(g26
g3
Ntp2937
Rp2938
(dp2939
g30
I01
sg31
I16
sg32
I-16
sg33
I-1
sbsg129
I-31568
sbsg130
S'u1[k]'
p2940
sg132
I0
sg133
g1
(g118
g3
Ntp2941
Rp2942
(dp2943
g122
g2936
sg25
g1
(g26
g3
Ntp2944
Rp2945
(dp2946
g30
I01
sg31
I16
sg32
I-16
sg33
I-1
sbsg129
I-31568
sbsg63
g1
(g21
g3
Ntp2947
Rp2948
(dp2949
g25
g1
(g26
g3
Ntp2950
Rp2951
(dp2952
g30
I01
sg31
I32
sg32
I-23
sg33
I8
sbsg34
I957646848
sg35
I-654594048
sg36
S'Var381'
p2953
sg38
g2886
sg49
g2889
sbsg36
S'Mult_u1[k]'
p2954
sg31
I32
sg148
g1
(g21
g3
Ntp2955
Rp2956
(dp2957
g25
g1
(g26
g3
Ntp2958
Rp2959
(dp2960
g30
I01
sg31
I16
sg32
I-7
sg33
I8
sbsg34
I20736
sg35
I-30336
sg36
g2940
sg38
g39
(g43
S'\x00\x00\x00\x00\x00\xa0m\xc0'
p2961
tp2962
Rp2963
sg49
g39
(g43
S'\x00\x00\x00\x00\x00@d@'
p2964
tp2965
Rp2966
sbsg161
I0
sbag1
(g101
g3
Ntp2967
Rp2968
(dp2969
g92
g1
(g78
g3
Ntp2970
Rp2971
(dp2972
g82
F0.0
sg83
I0
sg84
g85
sg86
g87
(S'\x04\x00\x00\x005\x00\x00\x00'
p2973
tp2974
Rp2975
sg91
F0.0
sbsg12
I1
sg13
I0
sg15
Nsg77
g1
(g78
g3
Ntp2976
Rp2977
(dp2978
g82
I0
sg83
I0
sg84
g85
sg86
I0
sg91
I0
sbsg114
g115
sg116
I2
sg117
g1
(g118
g3
Ntp2979
Rp2980
(dp2981
g122
g39
(g43
S'\xd9\x1f9^\x15\xb3\xc8?'
p2982
tp2983
Rp2984
sg25
g1
(g26
g3
Ntp2985
Rp2986
(dp2987
g30
I01
sg31
I16
sg32
I-17
sg33
I-2
sbsg129
I25292
sbsg130
S'x7[k]'
p2988
sg132
I0
sg133
g1
(g118
g3
Ntp2989
Rp2990
(dp2991
g122
g2984
sg25
g1
(g26
g3
Ntp2992
Rp2993
(dp2994
g30
I01
sg31
I16
sg32
I-17
sg33
I-2
sbsg129
I25292
sbsg63
g1
(g21
g3
Ntp2995
Rp2996
(dp2997
g25
g1
(g26
g3
Ntp2998
Rp2999
(dp3000
g30
I01
sg31
I32
sg32
I-21
sg33
I10
sbsg34
I451664536
sg35
I-308739444
sg36
S'Var380'
p3001
sg38
g2896
sg49
g2899
sbsg36
S'Mult_x7[k]'
p3002
sg31
I32
sg148
g1
(g21
g3
Ntp3003
Rp3004
(dp3005
g25
g1
(g26
g3
Ntp3006
Rp3007
(dp3008
g30
I01
sg31
I16
sg32
I-4
sg33
I11
sbsg34
I17858
sg35
I-12207
sg36
g2988
sg38
g39
(g43
S'\xe9\xf1\x1f9d\xd7\x87\xc0'
p3009
tp3010
Rp3011
sg49
g39
(g43
S'-\xff\x14\x92\x84p\x91@'
p3012
tp3013
Rp3014
sbsg161
I0
sbasg210
g2920
sg211
(lp3015
I0
aI0
asbag1
(g101
g3
Ntp3016
Rp3017
(dp3018
g92
g1
(g78
g3
Ntp3019
Rp3020
(dp3021
g82
F0.0
sg83
I0
sg84
g85
sg86
g87
(S'\x04\x00\x00\x005\x00\x00\x00'
p3022
tp3023
Rp3024
sg91
F0.0
sbsg12
I1
sg13
I0
sg15
Nsg77
g1
(g78
g3
Ntp3025
Rp3026
(dp3027
g82
I0
sg83
I0
sg84
g85
sg86
I0
sg91
I0
sbsg114
g115
sg116
I0
sg117
g1
(g118
g3
Ntp3028
Rp3029
(dp3030
g122
g39
(g43
S'\xe0\xdf\xf5\x10%,\xc1?'
p3031
tp3032
Rp3033
sg25
g1
(g26
g3
Ntp3034
Rp3035
(dp3036
g30
I01
sg31
I16
sg32
I-17
sg33
I-2
sbsg129
I17585
sbsg130
S't1[k+1]'
p3037
sg132
I0
sg133
g1
(g118
g3
Ntp3038
Rp3039
(dp3040
g122
g3033
sg25
g1
(g26
g3
Ntp3041
Rp3042
(dp3043
g30
I01
sg31
I16
sg32
I-17
sg33
I-2
sbsg129
I17585
sbsg63
g1
(g21
g3
Ntp3044
Rp3045
(dp3046
g25
g1
(g26
g3
Ntp3047
Rp3048
(dp3049
g30
I01
sg31
I32
sg32
I-21
sg33
I10
sbsg34
I456541770
sg35
I-347743375
sg36
S'Var378'
p3050
sg38
g2851
sg49
g2854
sbsg36
S'Mult_t1[k+1]'
p3051
sg31
I32
sg148
g1
(g21
g3
Ntp3052
Rp3053
(dp3054
g25
g1
(g26
g3
Ntp3055
Rp3056
(dp3057
g30
I01
sg31
I16
sg32
I-4
sg33
I11
sbsg34
I25962
sg35
I-19775
sg36
g3037
sg38
g39
(g43
S'S\x17\xee\x7f\xdbO\x93\xc0'
p3058
tp3059
Rp3060
sg49
g39
(g43
S'\xf9$\x95\xaa\x7fZ\x99@'
p3061
tp3062
Rp3063
sbsg161
I0
sbasg210
g2920
sg211
(lp3064
I0
aI0
asbag1
(g101
g3
Ntp3065
Rp3066
(dp3067
g92
g1
(g78
g3
Ntp3068
Rp3069
(dp3070
g82
F0.0
sg83
I0
sg84
g85
sg86
g87
(S'\x04\x00\x00\x005\x00\x00\x00'
p3071
tp3072
Rp3073
sg91
F0.0
sbsg12
I1
sg13
I0
sg15
Nsg77
g1
(g78
g3
Ntp3074
Rp3075
(dp3076
g82
I0
sg83
I0
sg84
g85
sg86
I0
sg91
I0
sbsg114
g115
sg116
I1
sg117
g1
(g118
g3
Ntp3077
Rp3078
(dp3079
g122
g39
(g43
S'\x00\x00\x00\x00\x00\x00\xf0?'
p3080
tp3081
Rp3082
sg25
g1
(g26
g3
Ntp3083
Rp3084
(dp3085
g30
I01
sg31
I16
sg32
I-14
sg33
I1
sbsg129
I16384
sbsg130
S't8[k+1]'
p3086
sg132
I0
sg133
g1
(g118
g3
Ntp3087
Rp3088
(dp3089
g122
g3082
sg25
g1
(g26
g3
Ntp3090
Rp3091
(dp3092
g30
I01
sg31
I16
sg32
I-14
sg33
I1
sbsg129
I16384
sbsg63
g1
(g21
g3
Ntp3093
Rp3094
(dp3095
g25
g1
(g26
g3
Ntp3096
Rp3097
(dp3098
g30
I01
sg31
I32
sg32
I-19
sg33
I12
sbsg34
I326467584
sg35
I-223150080
sg36
S'Var379'
p3099
sg38
g2797
sg49
g2800
sbsg36
S'Mult_t8[k+1]'
p3100
sg31
I32
sg148
g1
(g21
g3
Ntp3101
Rp3102
(dp3103
g25
g1
(g26
g3
Ntp3104
Rp3105
(dp3106
g30
I01
sg31
I16
sg32
I-5
sg33
I10
sbsg34
I19926
sg35
I-13620
sg36
g3086
sg38
g39
(g43
S'\x80\x95\xd9\x8d\x00\x9az\xc0'
p3107
tp3108
Rp3109
sg49
g39
(g43
S'f\x9a\xfb\xf5cu\x83@'
p3110
tp3111
Rp3112
sbsg161
I0
sbasg210
g2920
sg211
(lp3113
I0
aI0
asbsg213
g1
(g21
g3
Ntp3114
Rp3115
(dp3116
g25
g1
(g26
g3
Ntp3117
Rp3118
(dp3119
g30
I01
sg31
I16
sg32
I-4
sg33
I11
sbsg34
I8755
sg35
I-6258
sg36
S'Var377'
p3120
sg38
g39
(g43
S'X\xd8\xa6\x9f\x89\x85\x89\xc0'
p3121
tp3122
Rp3123
sg49
g39
(g43
S'erXE\x97G\x92@'
p3124
tp3125
Rp3126
sbsg221
I16
sbag1
(g2
g3
Ntp3127
Rp3128
(dp3129
g7
g1
(g8
g3
Ntp3130
Rp3131
(dp3132
g12
Nsg13
(lp3133
I1
aI0
asg15
Nsg16
(lp3134
I0
aI0
asg18
I01
sg19
(lp3135
g1
(g21
g3
Ntp3136
Rp3137
(dp3138
g25
g1
(g26
g3
Ntp3139
Rp3140
(dp3141
g30
I01
sg31
I32
sg32
I-20
sg33
I11
sbsg34
I321545157
sg35
I-237369096
sg36
S'Var443'
p3142
sg38
g39
(g43
S'ps\xd5\xa5\xf2Kl\xc0'
p3143
tp3144
Rp3145
sg49
g39
(g43
S'\x86\xc8K\x0bS*s@'
p3146
tp3147
Rp3148
sbag1
(g21
g3
Ntp3149
Rp3150
(dp3151
g25
g3140
sg34
I4056
sg35
I2722
sg36
S'Var444'
p3152
sg38
g39
(g43
S'\x86*q\x809\xf1\x83\xc0'
p3153
tp3154
Rp3155
sg49
g39
(g43
S'\xdeh\xf1(\xc1,\x8d@'
p3156
tp3157
Rp3158
sbasg63
g1
(g21
g3
Ntp3159
Rp3160
(dp3161
g25
g3140
sg34
I321549213
sg35
I-237366374
sg36
S'Var445'
p3162
sg38
g39
(g43
S'b\x87\xe6)6\x04\x8b\xc0'
p3163
tp3164
Rp3165
sg49
g39
(g43
S'\x90\xa6KW\xf5`\x93@'
p3166
tp3167
Rp3168
sbsg36
S'Add_77'
p3169
sg75
(lp3170
I0
aI0
asg77
g1
(g78
g3
Ntp3171
Rp3172
(dp3173
g82
F0.0003255208333321491
sg83
I0
sg84
g85
sg86
g87
(S'\x04c\x00\x005\x00\x00\x00\x04\x00\x00\x00\x00\x00\x00\x00\x00\xe0\xff\xff'
p3174
tp3175
Rp3176
sg91
F0.031249940395355225
sbsg92
g1
(g78
g3
Ntp3177
Rp3178
(dp3179
g82
F0.0003255208333143855
sg83
I0
sg84
g85
sg86
g87
(S'\x04c\x00\x005\x00\x00\x00\x04\x00\x00\x00\x00\x00\x00\x00\x00\x80\xff\xff'
p3180
tp3181
Rp3182
sg91
F0.0312497615814209
sbsg99
(lp3183
g1
(g8
g3
Ntp3184
Rp3185
(dp3186
g12
Nsg13
(lp3187
I2
aI0
asg15
Nsg16
(lp3188
I0
aI0
asg18
I00
sg19
(lp3189
g1
(g21
g3
Ntp3190
Rp3191
(dp3192
g25
g1
(g26
g3
Ntp3193
Rp3194
(dp3195
g30
I01
sg31
I32
sg32
I-21
sg33
I10
sbsg34
I193194816
sg35
I-132057216
sg36
S'Var438'
p3196
sg38
g39
(g43
S'B\xaf\xff\x03\t|O\xc0'
p3197
tp3198
Rp3199
sg49
g39
(g43
S'\r\x8cq9\xc4\x07W@'
p3200
tp3201
Rp3202
sbag1
(g21
g3
Ntp3203
Rp3204
(dp3205
g25
g3194
sg34
I449895498
sg35
I-342680975
sg36
S'Var439'
p3206
sg38
g39
(g43
S'\xa0\x87\xd5d\xf0ld\xc0'
p3207
tp3208
Rp3209
sg49
g39
(g43
S'\x06\xcb\xde\xf9\xc3\xd0j@'
p3210
tp3211
Rp3212
sbasg63
g1
(g21
g3
Ntp3213
Rp3214
(dp3215
g25
g3194
sg34
I643090314
sg35
I-474738191
sg36
S'Var440'
p3216
sg38
g3145
sg49
g3148
sbsg36
S'Add_76'
p3217
sg75
(lp3218
I0
aI0
asg77
g1
(g78
g3
Ntp3219
Rp3220
(dp3221
g82
F1.7763568394002505e-14
sg83
I0
sg84
g85
sg86
g87
(S'\x04c\x00\x005\x00\x00\x00\x15\x00\x00\x00\x00\x00\x00\x00\x00\x00\x00\xc0'
p3222
tp3223
Rp3224
sg91
F1.7881393432617188e-07
sbsg92
g1
(g78
g3
Ntp3225
Rp3226
(dp3227
g82
F1.7763568394002505e-14
sg83
I0
sg84
g85
sg86
g87
(S'\x04c\x00\x005\x00\x00\x00\x15\x00\x00\x00\x00\x00\x00\x00\x00\x00\x00\xc0'
p3228
tp3229
Rp3230
sg91
F1.7881393432617188e-07
sbsg99
(lp3231
g1
(g101
g3
Ntp3232
Rp3233
(dp3234
g92
g1
(g78
g3
Ntp3235
Rp3236
(dp3237
g82
F0.0
sg83
I0
sg84
g85
sg86
g87
(S'\x04\x00\x00\x005\x00\x00\x00'
p3238
tp3239
Rp3240
sg91
F0.0
sbsg12
I1
sg13
I0
sg15
Nsg77
g1
(g78
g3
Ntp3241
Rp3242
(dp3243
g82
I0
sg83
I0
sg84
g85
sg86
I0
sg91
I0
sbsg114
g115
sg116
I2
sg117
g1
(g118
g3
Ntp3244
Rp3245
(dp3246
g122
g39
(g43
S'\xcc\x90^Bl\xe0\xd8\xbf'
p3247
tp3248
Rp3249
sg25
g1
(g26
g3
Ntp3250
Rp3251
(dp3252
g30
I01
sg31
I16
sg32
I-16
sg33
I-1
sbsg129
I-25474
sbsg130
S'u1[k]'
p3253
sg132
I0
sg133
g1
(g118
g3
Ntp3254
Rp3255
(dp3256
g122
g3249
sg25
g1
(g26
g3
Ntp3257
Rp3258
(dp3259
g30
I01
sg31
I16
sg32
I-16
sg33
I-1
sbsg129
I-25474
sbsg63
g1
(g21
g3
Ntp3260
Rp3261
(dp3262
g25
g1
(g26
g3
Ntp3263
Rp3264
(dp3265
g30
I01
sg31
I32
sg32
I-23
sg33
I8
sbsg34
I772779264
sg35
I-528228864
sg36
S'Var435'
p3266
sg38
g3199
sg49
g3202
sbsg36
S'Mult_u1[k]'
p3267
sg31
I32
sg148
g1
(g21
g3
Ntp3268
Rp3269
(dp3270
g25
g1
(g26
g3
Ntp3271
Rp3272
(dp3273
g30
I01
sg31
I16
sg32
I-7
sg33
I8
sbsg34
I20736
sg35
I-30336
sg36
g3253
sg38
g39
(g43
S'\x00\x00\x00\x00\x00\xa0m\xc0'
p3274
tp3275
Rp3276
sg49
g39
(g43
S'\x00\x00\x00\x00\x00@d@'
p3277
tp3278
Rp3279
sbsg161
I0
sbag1
(g101
g3
Ntp3280
Rp3281
(dp3282
g92
g1
(g78
g3
Ntp3283
Rp3284
(dp3285
g82
F0.0
sg83
I0
sg84
g85
sg86
g87
(S'\x04\x00\x00\x005\x00\x00\x00'
p3286
tp3287
Rp3288
sg91
F0.0
sbsg12
I1
sg13
I0
sg15
Nsg77
g1
(g78
g3
Ntp3289
Rp3290
(dp3291
g82
I0
sg83
I0
sg84
g85
sg86
I0
sg91
I0
sbsg114
g115
sg116
I0
sg117
g1
(g118
g3
Ntp3292
Rp3293
(dp3294
g122
g39
(g43
S'`\xfa\x1c\xe10\xec\xc0?'
p3295
tp3296
Rp3297
sg25
g1
(g26
g3
Ntp3298
Rp3299
(dp3300
g30
I01
sg31
I16
sg32
I-17
sg33
I-2
sbsg129
I17329
sbsg130
S't1[k+1]'
p3301
sg132
I0
sg133
g1
(g118
g3
Ntp3302
Rp3303
(dp3304
g122
g3297
sg25
g1
(g26
g3
Ntp3305
Rp3306
(dp3307
g30
I01
sg31
I16
sg32
I-17
sg33
I-2
sbsg129
I17329
sbsg63
g1
(g21
g3
Ntp3308
Rp3309
(dp3310
g25
g1
(g26
g3
Ntp3311
Rp3312
(dp3313
g30
I01
sg31
I32
sg32
I-21
sg33
I10
sbsg34
I449895498
sg35
I-342680975
sg36
S'Var433'
p3314
sg38
g3209
sg49
g3212
sbsg36
S'Mult_t1[k+1]'
p3315
sg31
I32
sg148
g1
(g21
g3
Ntp3316
Rp3317
(dp3318
g25
g1
(g26
g3
Ntp3319
Rp3320
(dp3321
g30
I01
sg31
I16
sg32
I-4
sg33
I11
sbsg34
I25962
sg35
I-19775
sg36
g3301
sg38
g39
(g43
S'S\x17\xee\x7f\xdbO\x93\xc0'
p3322
tp3323
Rp3324
sg49
g39
(g43
S'\xf9$\x95\xaa\x7fZ\x99@'
p3325
tp3326
Rp3327
sbsg161
I0
sbasg210
g3233
sg211
(lp3328
I0
aI0
asbag1
(g101
g3
Ntp3329
Rp3330
(dp3331
g92
g1
(g78
g3
Ntp3332
Rp3333
(dp3334
g82
F0.0
sg83
I0
sg84
g85
sg86
g87
(S'\x04\x00\x00\x005\x00\x00\x00'
p3335
tp3336
Rp3337
sg91
F0.0
sbsg12
I1
sg13
I0
sg15
Nsg77
g1
(g78
g3
Ntp3338
Rp3339
(dp3340
g82
I0
sg83
I0
sg84
g85
sg86
I0
sg91
I0
sbsg114
g115
sg116
I1
sg117
g1
(g118
g3
Ntp3341
Rp3342
(dp3343
g122
g39
(g43
S'p\x8c\x13\x0f\xc3)\xe9?'
p3344
tp3345
Rp3346
sg25
g1
(g26
g3
Ntp3347
Rp3348
(dp3349
g30
I01
sg31
I16
sg32
I-15
sg33
I0
sbsg129
I25767
sbsg130
S'x8[k]'
p3350
sg132
I0
sg133
g1
(g118
g3
Ntp3351
Rp3352
(dp3353
g122
g3346
sg25
g1
(g26
g3
Ntp3354
Rp3355
(dp3356
g30
I01
sg31
I16
sg32
I-15
sg33
I0
sbsg129
I25767
sbsg63
g1
(g21
g3
Ntp3357
Rp3358
(dp3359
g25
g1
(g26
g3
Ntp3360
Rp3361
(dp3362
g30
I01
sg31
I32
sg32
I-19
sg33
I12
sbsg34
I489469932
sg35
I-334584495
sg36
S'Var434'
p3363
sg38
g3155
sg49
g3158
sbsg36
S'Mult_x8[k]'
p3364
sg31
I32
sg148
g1
(g21
g3
Ntp3365
Rp3366
(dp3367
g25
g1
(g26
g3
Ntp3368
Rp3369
(dp3370
g30
I01
sg31
I16
sg32
I-4
sg33
I11
sbsg34
I18996
sg35
I-12985
sg36
g3350
sg38
g39
(g43
S'\t&6\xb8R\\\x89\xc0'
p3371
tp3372
Rp3373
sg49
g39
(g43
S'\xe4us\x9e\x03\x8d\x92@'
p3374
tp3375
Rp3376
sbsg161
I0
sbasg210
g3233
sg211
(lp3377
I0
aI0
asbsg213
g1
(g21
g3
Ntp3378
Rp3379
(dp3380
g25
g1
(g26
g3
Ntp3381
Rp3382
(dp3383
g30
I01
sg31
I16
sg32
I-4
sg33
I11
sbsg34
I4906
sg35
I-3622
sg36
S'Var432'
p3384
sg38
g3165
sg49
g3168
sbsg221
I16
sbag1
(g2
g3
Ntp3385
Rp3386
(dp3387
g7
g1
(g101
g3
Ntp3388
Rp3389
(dp3390
g92
g1
(g78
g3
Ntp3391
Rp3392
(dp3393
g82
F0.0
sg83
I0
sg84
g85
sg86
g87
(S'\x04\x00\x00\x005\x00\x00\x00'
p3394
tp3395
Rp3396
sg91
F0.0
sbsg12
I1
sg13
I0
sg15
Nsg77
g1
(g78
g3
Ntp3397
Rp3398
(dp3399
g82
I0
sg83
I0
sg84
g85
sg86
I0
sg91
I0
sbsg114
g115
sg116
I0
sg117
g1
(g118
g3
Ntp3400
Rp3401
(dp3402
g122
g39
(g43
S'\x00\x00\x00\x00\x00\x00\xf0?'
p3403
tp3404
Rp3405
sg25
g1
(g26
g3
Ntp3406
Rp3407
(dp3408
g30
I01
sg31
I16
sg32
I-14
sg33
I1
sbsg129
I16384
sbsg130
S't1[k+1]'
p3409
sg132
I0
sg133
g1
(g118
g3
Ntp3410
Rp3411
(dp3412
g122
g3405
sg25
g1
(g26
g3
Ntp3413
Rp3414
(dp3415
g30
I01
sg31
I16
sg32
I-14
sg33
I1
sbsg129
I16384
sbsg63
g1
(g21
g3
Ntp3416
Rp3417
(dp3418
g25
g1
(g26
g3
Ntp3419
Rp3420
(dp3421
g30
I01
sg31
I32
sg32
I-18
sg33
I13
sbsg34
I425361408
sg35
I-323993600
sg36
S'Var447'
p3422
sg38
g39
(g43
S'S\x17\xee\x7f\xdbO\x93\xc0'
p3423
tp3424
Rp3425
sg49
g39
(g43
S'\xf9$\x95\xaa\x7fZ\x99@'
p3426
tp3427
Rp3428
sbsg36
S'Mult_t1[k+1]'
p3429
sg31
I32
sg148
g1
(g21
g3
Ntp3430
Rp3431
(dp3432
g25
g1
(g26
g3
Ntp3433
Rp3434
(dp3435
g30
I01
sg31
I16
sg32
I-4
sg33
I11
sbsg34
I25962
sg35
I-19775
sg36
g3409
sg38
g39
(g43
S'S\x17\xee\x7f\xdbO\x93\xc0'
p3436
tp3437
Rp3438
sg49
g39
(g43
S'\xf9$\x95\xaa\x7fZ\x99@'
p3439
tp3440
Rp3441
sbsg161
I0
sbsg213
Nsg221
I0
sba.